
SHARP_LCD_TEST.elf:     file format elf32-littlearm

Sections:
Idx Name          Size      VMA       LMA       File off  Algn
  0 .text         00001290  00000000  00000000  00010000  2**2
                  CONTENTS, ALLOC, LOAD, READONLY, CODE
  1 .relocate     00000020  20000000  00001290  00020000  2**2
                  CONTENTS, ALLOC, LOAD, DATA
  2 .lpram        00000000  30000000  30000000  00020020  2**0
                  CONTENTS
  3 .bss          000000c8  20000020  000012b0  00020020  2**2
                  ALLOC
  4 .stack        00001000  200000e8  00001378  00020020  2**0
                  ALLOC
  5 .ARM.attributes 00000028  00000000  00000000  00020020  2**0
                  CONTENTS, READONLY
  6 .comment      00000059  00000000  00000000  00020048  2**0
                  CONTENTS, READONLY
  7 .debug_frame  0000006c  00000000  00000000  000200a4  2**2
                  CONTENTS, READONLY, DEBUGGING

Disassembly of section .text:

00000000 <exception_table>:
       0:	e8 10 00 20 dd 0e 00 00 d9 0e 00 00 d9 0e 00 00     ... ............
	...
      2c:	d9 0e 00 00 00 00 00 00 00 00 00 00 d9 0e 00 00     ................
      3c:	d9 0e 00 00 d9 0e 00 00 d9 0e 00 00 d9 0e 00 00     ................
      4c:	d9 0e 00 00 d9 0e 00 00 d9 0e 00 00 d9 0e 00 00     ................
      5c:	d9 0e 00 00 65 04 00 00 75 04 00 00 85 04 00 00     ....e...u.......
      6c:	95 04 00 00 a5 04 00 00 b5 04 00 00 d9 0e 00 00     ................
      7c:	d9 0e 00 00 d9 0e 00 00 d9 0e 00 00 d9 0e 00 00     ................
      8c:	d9 0e 00 00 d9 0e 00 00 d9 0e 00 00 d9 0e 00 00     ................
      9c:	d9 0e 00 00 d9 0e 00 00 d9 0e 00 00 d9 0e 00 00     ................
      ac:	d9 0e 00 00 00 00 00 00                             ........

000000b4 <__do_global_dtors_aux>:
      b4:	b510      	push	{r4, lr}
      b6:	4c06      	ldr	r4, [pc, #24]	; (d0 <__do_global_dtors_aux+0x1c>)
      b8:	7823      	ldrb	r3, [r4, #0]
      ba:	2b00      	cmp	r3, #0
      bc:	d107      	bne.n	ce <__do_global_dtors_aux+0x1a>
      be:	4b05      	ldr	r3, [pc, #20]	; (d4 <__do_global_dtors_aux+0x20>)
      c0:	2b00      	cmp	r3, #0
      c2:	d002      	beq.n	ca <__do_global_dtors_aux+0x16>
      c4:	4804      	ldr	r0, [pc, #16]	; (d8 <__do_global_dtors_aux+0x24>)
      c6:	e000      	b.n	ca <__do_global_dtors_aux+0x16>
      c8:	bf00      	nop
      ca:	2301      	movs	r3, #1
      cc:	7023      	strb	r3, [r4, #0]
      ce:	bd10      	pop	{r4, pc}
      d0:	20000020 	.word	0x20000020
      d4:	00000000 	.word	0x00000000
      d8:	00001290 	.word	0x00001290

000000dc <frame_dummy>:
      dc:	4b08      	ldr	r3, [pc, #32]	; (100 <frame_dummy+0x24>)
      de:	b510      	push	{r4, lr}
      e0:	2b00      	cmp	r3, #0
      e2:	d003      	beq.n	ec <frame_dummy+0x10>
      e4:	4907      	ldr	r1, [pc, #28]	; (104 <frame_dummy+0x28>)
      e6:	4808      	ldr	r0, [pc, #32]	; (108 <frame_dummy+0x2c>)
      e8:	e000      	b.n	ec <frame_dummy+0x10>
      ea:	bf00      	nop
      ec:	4807      	ldr	r0, [pc, #28]	; (10c <frame_dummy+0x30>)
      ee:	6803      	ldr	r3, [r0, #0]
      f0:	2b00      	cmp	r3, #0
      f2:	d100      	bne.n	f6 <frame_dummy+0x1a>
      f4:	bd10      	pop	{r4, pc}
      f6:	4b06      	ldr	r3, [pc, #24]	; (110 <frame_dummy+0x34>)
      f8:	2b00      	cmp	r3, #0
      fa:	d0fb      	beq.n	f4 <frame_dummy+0x18>
      fc:	4798      	blx	r3
      fe:	e7f9      	b.n	f4 <frame_dummy+0x18>
     100:	00000000 	.word	0x00000000
     104:	20000024 	.word	0x20000024
     108:	00001290 	.word	0x00001290
     10c:	00001290 	.word	0x00001290
     110:	00000000 	.word	0x00000000

00000114 <delay_init>:
     114:	b570      	push	{r4, r5, r6, lr}
     116:	4b09      	ldr	r3, [pc, #36]	; (13c <delay_init+0x28>)
     118:	2000      	movs	r0, #0
     11a:	4798      	blx	r3
     11c:	21fa      	movs	r1, #250	; 0xfa
     11e:	4c08      	ldr	r4, [pc, #32]	; (140 <delay_init+0x2c>)
     120:	0089      	lsls	r1, r1, #2
     122:	0005      	movs	r5, r0
     124:	47a0      	blx	r4
     126:	4b07      	ldr	r3, [pc, #28]	; (144 <delay_init+0x30>)
     128:	4907      	ldr	r1, [pc, #28]	; (148 <delay_init+0x34>)
     12a:	6018      	str	r0, [r3, #0]
     12c:	0028      	movs	r0, r5
     12e:	47a0      	blx	r4
     130:	2205      	movs	r2, #5
     132:	4b06      	ldr	r3, [pc, #24]	; (14c <delay_init+0x38>)
     134:	6018      	str	r0, [r3, #0]
     136:	4b06      	ldr	r3, [pc, #24]	; (150 <delay_init+0x3c>)
     138:	601a      	str	r2, [r3, #0]
     13a:	bd70      	pop	{r4, r5, r6, pc}
     13c:	00000cdd 	.word	0x00000cdd
     140:	000010e9 	.word	0x000010e9
     144:	20000000 	.word	0x20000000
     148:	000f4240 	.word	0x000f4240
     14c:	20000004 	.word	0x20000004
     150:	e000e010 	.word	0xe000e010

00000154 <delay_cycles_ms>:
     154:	b530      	push	{r4, r5, lr}
     156:	2480      	movs	r4, #128	; 0x80
     158:	2100      	movs	r1, #0
     15a:	4b07      	ldr	r3, [pc, #28]	; (178 <delay_cycles_ms+0x24>)
     15c:	0264      	lsls	r4, r4, #9
     15e:	681a      	ldr	r2, [r3, #0]
     160:	4b06      	ldr	r3, [pc, #24]	; (17c <delay_cycles_ms+0x28>)
     162:	3801      	subs	r0, #1
     164:	d200      	bcs.n	168 <delay_cycles_ms+0x14>
     166:	bd30      	pop	{r4, r5, pc}
     168:	2a00      	cmp	r2, #0
     16a:	d0fa      	beq.n	162 <delay_cycles_ms+0xe>
     16c:	605a      	str	r2, [r3, #4]
     16e:	6099      	str	r1, [r3, #8]
     170:	681d      	ldr	r5, [r3, #0]
     172:	4225      	tst	r5, r4
     174:	d0fc      	beq.n	170 <delay_cycles_ms+0x1c>
     176:	e7f4      	b.n	162 <delay_cycles_ms+0xe>
     178:	20000000 	.word	0x20000000
     17c:	e000e010 	.word	0xe000e010

00000180 <system_board_init>:
     180:	4770      	bx	lr
	...

00000184 <cpu_irq_enter_critical>:
     184:	4b09      	ldr	r3, [pc, #36]	; (1ac <cpu_irq_enter_critical+0x28>)
     186:	6819      	ldr	r1, [r3, #0]
     188:	2900      	cmp	r1, #0
     18a:	d10b      	bne.n	1a4 <cpu_irq_enter_critical+0x20>
     18c:	f3ef 8010 	mrs	r0, PRIMASK
     190:	4a07      	ldr	r2, [pc, #28]	; (1b0 <cpu_irq_enter_critical+0x2c>)
     192:	2800      	cmp	r0, #0
     194:	d105      	bne.n	1a2 <cpu_irq_enter_critical+0x1e>
     196:	b672      	cpsid	i
     198:	f3bf 8f5f 	dmb	sy
     19c:	4905      	ldr	r1, [pc, #20]	; (1b4 <cpu_irq_enter_critical+0x30>)
     19e:	7008      	strb	r0, [r1, #0]
     1a0:	2101      	movs	r1, #1
     1a2:	7011      	strb	r1, [r2, #0]
     1a4:	681a      	ldr	r2, [r3, #0]
     1a6:	3201      	adds	r2, #1
     1a8:	601a      	str	r2, [r3, #0]
     1aa:	4770      	bx	lr
     1ac:	2000003c 	.word	0x2000003c
     1b0:	20000040 	.word	0x20000040
     1b4:	20000008 	.word	0x20000008

000001b8 <cpu_irq_leave_critical>:
     1b8:	4b08      	ldr	r3, [pc, #32]	; (1dc <cpu_irq_leave_critical+0x24>)
     1ba:	681a      	ldr	r2, [r3, #0]
     1bc:	3a01      	subs	r2, #1
     1be:	601a      	str	r2, [r3, #0]
     1c0:	681b      	ldr	r3, [r3, #0]
     1c2:	2b00      	cmp	r3, #0
     1c4:	d109      	bne.n	1da <cpu_irq_leave_critical+0x22>
     1c6:	4b06      	ldr	r3, [pc, #24]	; (1e0 <cpu_irq_leave_critical+0x28>)
     1c8:	781b      	ldrb	r3, [r3, #0]
     1ca:	2b00      	cmp	r3, #0
     1cc:	d005      	beq.n	1da <cpu_irq_leave_critical+0x22>
     1ce:	2201      	movs	r2, #1
     1d0:	4b04      	ldr	r3, [pc, #16]	; (1e4 <cpu_irq_leave_critical+0x2c>)
     1d2:	701a      	strb	r2, [r3, #0]
     1d4:	f3bf 8f5f 	dmb	sy
     1d8:	b662      	cpsie	i
     1da:	4770      	bx	lr
     1dc:	2000003c 	.word	0x2000003c
     1e0:	20000040 	.word	0x20000040
     1e4:	20000008 	.word	0x20000008

000001e8 <port_pin_set_config>:
     1e8:	b507      	push	{r0, r1, r2, lr}
     1ea:	2280      	movs	r2, #128	; 0x80
     1ec:	ab01      	add	r3, sp, #4
     1ee:	701a      	strb	r2, [r3, #0]
     1f0:	780a      	ldrb	r2, [r1, #0]
     1f2:	705a      	strb	r2, [r3, #1]
     1f4:	784a      	ldrb	r2, [r1, #1]
     1f6:	709a      	strb	r2, [r3, #2]
     1f8:	788a      	ldrb	r2, [r1, #2]
     1fa:	0019      	movs	r1, r3
     1fc:	70da      	strb	r2, [r3, #3]
     1fe:	4b01      	ldr	r3, [pc, #4]	; (204 <port_pin_set_config+0x1c>)
     200:	4798      	blx	r3
     202:	bd07      	pop	{r0, r1, r2, pc}
     204:	00000e7d 	.word	0x00000e7d

00000208 <_sercom_get_sync_baud_val>:
     208:	b510      	push	{r4, lr}
     20a:	0849      	lsrs	r1, r1, #1
     20c:	0004      	movs	r4, r0
     20e:	2300      	movs	r3, #0
     210:	2040      	movs	r0, #64	; 0x40
     212:	42a1      	cmp	r1, r4
     214:	d201      	bcs.n	21a <_sercom_get_sync_baud_val+0x12>
     216:	bd10      	pop	{r4, pc}
     218:	0003      	movs	r3, r0
     21a:	1c58      	adds	r0, r3, #1
     21c:	1b09      	subs	r1, r1, r4
     21e:	b280      	uxth	r0, r0
     220:	428c      	cmp	r4, r1
     222:	d9f9      	bls.n	218 <_sercom_get_sync_baud_val+0x10>
     224:	2040      	movs	r0, #64	; 0x40
     226:	2bff      	cmp	r3, #255	; 0xff
     228:	d8f5      	bhi.n	216 <_sercom_get_sync_baud_val+0xe>
     22a:	8013      	strh	r3, [r2, #0]
     22c:	2000      	movs	r0, #0
     22e:	e7f2      	b.n	216 <_sercom_get_sync_baud_val+0xe>

00000230 <sercom_set_gclk_generator>:
     230:	b537      	push	{r0, r1, r2, r4, r5, lr}
     232:	4c0d      	ldr	r4, [pc, #52]	; (268 <sercom_set_gclk_generator+0x38>)
     234:	0005      	movs	r5, r0
     236:	7823      	ldrb	r3, [r4, #0]
     238:	2b00      	cmp	r3, #0
     23a:	d001      	beq.n	240 <sercom_set_gclk_generator+0x10>
     23c:	2900      	cmp	r1, #0
     23e:	d00c      	beq.n	25a <sercom_set_gclk_generator+0x2a>
     240:	a901      	add	r1, sp, #4
     242:	2011      	movs	r0, #17
     244:	4b09      	ldr	r3, [pc, #36]	; (26c <sercom_set_gclk_generator+0x3c>)
     246:	700d      	strb	r5, [r1, #0]
     248:	4798      	blx	r3
     24a:	2011      	movs	r0, #17
     24c:	4b08      	ldr	r3, [pc, #32]	; (270 <sercom_set_gclk_generator+0x40>)
     24e:	4798      	blx	r3
     250:	2301      	movs	r3, #1
     252:	2000      	movs	r0, #0
     254:	7065      	strb	r5, [r4, #1]
     256:	7023      	strb	r3, [r4, #0]
     258:	bd3e      	pop	{r1, r2, r3, r4, r5, pc}
     25a:	7863      	ldrb	r3, [r4, #1]
     25c:	0008      	movs	r0, r1
     25e:	42ab      	cmp	r3, r5
     260:	d0fa      	beq.n	258 <sercom_set_gclk_generator+0x28>
     262:	201d      	movs	r0, #29
     264:	e7f8      	b.n	258 <sercom_set_gclk_generator+0x28>
     266:	46c0      	nop			; (mov r8, r8)
     268:	20000041 	.word	0x20000041
     26c:	00000da5 	.word	0x00000da5
     270:	00000d45 	.word	0x00000d45

00000274 <_sercom_get_default_pad>:
     274:	4a39      	ldr	r2, [pc, #228]	; (35c <_sercom_get_default_pad+0xe8>)
     276:	0003      	movs	r3, r0
     278:	b500      	push	{lr}
     27a:	0008      	movs	r0, r1
     27c:	4293      	cmp	r3, r2
     27e:	d034      	beq.n	2ea <_sercom_get_default_pad+0x76>
     280:	d808      	bhi.n	294 <_sercom_get_default_pad+0x20>
     282:	2284      	movs	r2, #132	; 0x84
     284:	05d2      	lsls	r2, r2, #23
     286:	4293      	cmp	r3, r2
     288:	d014      	beq.n	2b4 <_sercom_get_default_pad+0x40>
     28a:	4a35      	ldr	r2, [pc, #212]	; (360 <_sercom_get_default_pad+0xec>)
     28c:	4293      	cmp	r3, r2
     28e:	d01f      	beq.n	2d0 <_sercom_get_default_pad+0x5c>
     290:	2300      	movs	r3, #0
     292:	e017      	b.n	2c4 <_sercom_get_default_pad+0x50>
     294:	4a33      	ldr	r2, [pc, #204]	; (364 <_sercom_get_default_pad+0xf0>)
     296:	4293      	cmp	r3, r2
     298:	d03a      	beq.n	310 <_sercom_get_default_pad+0x9c>
     29a:	4a33      	ldr	r2, [pc, #204]	; (368 <_sercom_get_default_pad+0xf4>)
     29c:	4293      	cmp	r3, r2
     29e:	d044      	beq.n	32a <_sercom_get_default_pad+0xb6>
     2a0:	4a32      	ldr	r2, [pc, #200]	; (36c <_sercom_get_default_pad+0xf8>)
     2a2:	4293      	cmp	r3, r2
     2a4:	d1f4      	bne.n	290 <_sercom_get_default_pad+0x1c>
     2a6:	2300      	movs	r3, #0
     2a8:	2903      	cmp	r1, #3
     2aa:	d80b      	bhi.n	2c4 <_sercom_get_default_pad+0x50>
     2ac:	f000 ff12 	bl	10d4 <__gnu_thumb1_case_uqi>
     2b0:	2e2c2a50 	.word	0x2e2c2a50
     2b4:	2300      	movs	r3, #0
     2b6:	2903      	cmp	r1, #3
     2b8:	d804      	bhi.n	2c4 <_sercom_get_default_pad+0x50>
     2ba:	f000 ff0b 	bl	10d4 <__gnu_thumb1_case_uqi>
     2be:	0243      	.short	0x0243
     2c0:	0705      	.short	0x0705
     2c2:	4b2b      	ldr	r3, [pc, #172]	; (370 <_sercom_get_default_pad+0xfc>)
     2c4:	0018      	movs	r0, r3
     2c6:	bd00      	pop	{pc}
     2c8:	4b2a      	ldr	r3, [pc, #168]	; (374 <_sercom_get_default_pad+0x100>)
     2ca:	e7fb      	b.n	2c4 <_sercom_get_default_pad+0x50>
     2cc:	4b2a      	ldr	r3, [pc, #168]	; (378 <_sercom_get_default_pad+0x104>)
     2ce:	e7f9      	b.n	2c4 <_sercom_get_default_pad+0x50>
     2d0:	2300      	movs	r3, #0
     2d2:	2903      	cmp	r1, #3
     2d4:	d8f6      	bhi.n	2c4 <_sercom_get_default_pad+0x50>
     2d6:	f000 fefd 	bl	10d4 <__gnu_thumb1_case_uqi>
     2da:	0237      	.short	0x0237
     2dc:	0604      	.short	0x0604
     2de:	4b27      	ldr	r3, [pc, #156]	; (37c <_sercom_get_default_pad+0x108>)
     2e0:	e7f0      	b.n	2c4 <_sercom_get_default_pad+0x50>
     2e2:	4b27      	ldr	r3, [pc, #156]	; (380 <_sercom_get_default_pad+0x10c>)
     2e4:	e7ee      	b.n	2c4 <_sercom_get_default_pad+0x50>
     2e6:	4b27      	ldr	r3, [pc, #156]	; (384 <_sercom_get_default_pad+0x110>)
     2e8:	e7ec      	b.n	2c4 <_sercom_get_default_pad+0x50>
     2ea:	2300      	movs	r3, #0
     2ec:	2903      	cmp	r1, #3
     2ee:	d8e9      	bhi.n	2c4 <_sercom_get_default_pad+0x50>
     2f0:	f000 fef0 	bl	10d4 <__gnu_thumb1_case_uqi>
     2f4:	0604022c 	.word	0x0604022c
     2f8:	4b23      	ldr	r3, [pc, #140]	; (388 <_sercom_get_default_pad+0x114>)
     2fa:	e7e3      	b.n	2c4 <_sercom_get_default_pad+0x50>
     2fc:	4b23      	ldr	r3, [pc, #140]	; (38c <_sercom_get_default_pad+0x118>)
     2fe:	e7e1      	b.n	2c4 <_sercom_get_default_pad+0x50>
     300:	4b23      	ldr	r3, [pc, #140]	; (390 <_sercom_get_default_pad+0x11c>)
     302:	e7df      	b.n	2c4 <_sercom_get_default_pad+0x50>
     304:	4b23      	ldr	r3, [pc, #140]	; (394 <_sercom_get_default_pad+0x120>)
     306:	e7dd      	b.n	2c4 <_sercom_get_default_pad+0x50>
     308:	4b23      	ldr	r3, [pc, #140]	; (398 <_sercom_get_default_pad+0x124>)
     30a:	e7db      	b.n	2c4 <_sercom_get_default_pad+0x50>
     30c:	4b23      	ldr	r3, [pc, #140]	; (39c <_sercom_get_default_pad+0x128>)
     30e:	e7d9      	b.n	2c4 <_sercom_get_default_pad+0x50>
     310:	2300      	movs	r3, #0
     312:	2903      	cmp	r1, #3
     314:	d8d6      	bhi.n	2c4 <_sercom_get_default_pad+0x50>
     316:	f000 fedd 	bl	10d4 <__gnu_thumb1_case_uqi>
     31a:	021d      	.short	0x021d
     31c:	0604      	.short	0x0604
     31e:	4b20      	ldr	r3, [pc, #128]	; (3a0 <_sercom_get_default_pad+0x12c>)
     320:	e7d0      	b.n	2c4 <_sercom_get_default_pad+0x50>
     322:	4b20      	ldr	r3, [pc, #128]	; (3a4 <_sercom_get_default_pad+0x130>)
     324:	e7ce      	b.n	2c4 <_sercom_get_default_pad+0x50>
     326:	4b20      	ldr	r3, [pc, #128]	; (3a8 <_sercom_get_default_pad+0x134>)
     328:	e7cc      	b.n	2c4 <_sercom_get_default_pad+0x50>
     32a:	2300      	movs	r3, #0
     32c:	2903      	cmp	r1, #3
     32e:	d8c9      	bhi.n	2c4 <_sercom_get_default_pad+0x50>
     330:	f000 fed0 	bl	10d4 <__gnu_thumb1_case_uqi>
     334:	06040212 	.word	0x06040212
     338:	4b1c      	ldr	r3, [pc, #112]	; (3ac <_sercom_get_default_pad+0x138>)
     33a:	e7c3      	b.n	2c4 <_sercom_get_default_pad+0x50>
     33c:	4b1c      	ldr	r3, [pc, #112]	; (3b0 <_sercom_get_default_pad+0x13c>)
     33e:	e7c1      	b.n	2c4 <_sercom_get_default_pad+0x50>
     340:	4b1c      	ldr	r3, [pc, #112]	; (3b4 <_sercom_get_default_pad+0x140>)
     342:	e7bf      	b.n	2c4 <_sercom_get_default_pad+0x50>
     344:	4b1c      	ldr	r3, [pc, #112]	; (3b8 <_sercom_get_default_pad+0x144>)
     346:	e7bd      	b.n	2c4 <_sercom_get_default_pad+0x50>
     348:	2303      	movs	r3, #3
     34a:	e7bb      	b.n	2c4 <_sercom_get_default_pad+0x50>
     34c:	4b1b      	ldr	r3, [pc, #108]	; (3bc <_sercom_get_default_pad+0x148>)
     34e:	e7b9      	b.n	2c4 <_sercom_get_default_pad+0x50>
     350:	4b1b      	ldr	r3, [pc, #108]	; (3c0 <_sercom_get_default_pad+0x14c>)
     352:	e7b7      	b.n	2c4 <_sercom_get_default_pad+0x50>
     354:	4b1b      	ldr	r3, [pc, #108]	; (3c4 <_sercom_get_default_pad+0x150>)
     356:	e7b5      	b.n	2c4 <_sercom_get_default_pad+0x50>
     358:	4b1b      	ldr	r3, [pc, #108]	; (3c8 <_sercom_get_default_pad+0x154>)
     35a:	e7b3      	b.n	2c4 <_sercom_get_default_pad+0x50>
     35c:	42000800 	.word	0x42000800
     360:	42000400 	.word	0x42000400
     364:	42001000 	.word	0x42001000
     368:	43000400 	.word	0x43000400
     36c:	42000c00 	.word	0x42000c00
     370:	00050003 	.word	0x00050003
     374:	00060003 	.word	0x00060003
     378:	00070003 	.word	0x00070003
     37c:	00010003 	.word	0x00010003
     380:	001e0003 	.word	0x001e0003
     384:	001f0003 	.word	0x001f0003
     388:	00090003 	.word	0x00090003
     38c:	000a0003 	.word	0x000a0003
     390:	000b0003 	.word	0x000b0003
     394:	00110003 	.word	0x00110003
     398:	00120003 	.word	0x00120003
     39c:	00130003 	.word	0x00130003
     3a0:	000d0003 	.word	0x000d0003
     3a4:	000e0003 	.word	0x000e0003
     3a8:	000f0003 	.word	0x000f0003
     3ac:	00170003 	.word	0x00170003
     3b0:	00180003 	.word	0x00180003
     3b4:	00190003 	.word	0x00190003
     3b8:	00040003 	.word	0x00040003
     3bc:	00080003 	.word	0x00080003
     3c0:	00100003 	.word	0x00100003
     3c4:	000c0003 	.word	0x000c0003
     3c8:	00160003 	.word	0x00160003

000003cc <_sercom_get_sercom_inst_index>:
     3cc:	b570      	push	{r4, r5, r6, lr}
     3ce:	b086      	sub	sp, #24
     3d0:	4669      	mov	r1, sp
     3d2:	4b09      	ldr	r3, [pc, #36]	; (3f8 <_sercom_get_sercom_inst_index+0x2c>)
     3d4:	466a      	mov	r2, sp
     3d6:	cb70      	ldmia	r3!, {r4, r5, r6}
     3d8:	c170      	stmia	r1!, {r4, r5, r6}
     3da:	cb70      	ldmia	r3!, {r4, r5, r6}
     3dc:	c170      	stmia	r1!, {r4, r5, r6}
     3de:	2300      	movs	r3, #0
     3e0:	0099      	lsls	r1, r3, #2
     3e2:	5851      	ldr	r1, [r2, r1]
     3e4:	4281      	cmp	r1, r0
     3e6:	d102      	bne.n	3ee <_sercom_get_sercom_inst_index+0x22>
     3e8:	b2d8      	uxtb	r0, r3
     3ea:	b006      	add	sp, #24
     3ec:	bd70      	pop	{r4, r5, r6, pc}
     3ee:	3301      	adds	r3, #1
     3f0:	2b06      	cmp	r3, #6
     3f2:	d1f5      	bne.n	3e0 <_sercom_get_sercom_inst_index+0x14>
     3f4:	2000      	movs	r0, #0
     3f6:	e7f8      	b.n	3ea <_sercom_get_sercom_inst_index+0x1e>
     3f8:	00001258 	.word	0x00001258

000003fc <_sercom_default_handler>:
     3fc:	4770      	bx	lr
	...

00000400 <_sercom_set_handler>:
     400:	b5f0      	push	{r4, r5, r6, r7, lr}
     402:	4c09      	ldr	r4, [pc, #36]	; (428 <_sercom_set_handler+0x28>)
     404:	4a09      	ldr	r2, [pc, #36]	; (42c <_sercom_set_handler+0x2c>)
     406:	7823      	ldrb	r3, [r4, #0]
     408:	2b00      	cmp	r3, #0
     40a:	d109      	bne.n	420 <_sercom_set_handler+0x20>
     40c:	001e      	movs	r6, r3
     40e:	4f08      	ldr	r7, [pc, #32]	; (430 <_sercom_set_handler+0x30>)
     410:	4d08      	ldr	r5, [pc, #32]	; (434 <_sercom_set_handler+0x34>)
     412:	50d7      	str	r7, [r2, r3]
     414:	50ee      	str	r6, [r5, r3]
     416:	3304      	adds	r3, #4
     418:	2b18      	cmp	r3, #24
     41a:	d1fa      	bne.n	412 <_sercom_set_handler+0x12>
     41c:	3b17      	subs	r3, #23
     41e:	7023      	strb	r3, [r4, #0]
     420:	0080      	lsls	r0, r0, #2
     422:	5011      	str	r1, [r2, r0]
     424:	bdf0      	pop	{r4, r5, r6, r7, pc}
     426:	46c0      	nop			; (mov r8, r8)
     428:	20000043 	.word	0x20000043
     42c:	20000044 	.word	0x20000044
     430:	000003fd 	.word	0x000003fd
     434:	2000008c 	.word	0x2000008c

00000438 <_sercom_get_interrupt_vector>:
     438:	b507      	push	{r0, r1, r2, lr}
     43a:	2308      	movs	r3, #8
     43c:	466a      	mov	r2, sp
     43e:	7013      	strb	r3, [r2, #0]
     440:	3301      	adds	r3, #1
     442:	7053      	strb	r3, [r2, #1]
     444:	3301      	adds	r3, #1
     446:	7093      	strb	r3, [r2, #2]
     448:	3301      	adds	r3, #1
     44a:	70d3      	strb	r3, [r2, #3]
     44c:	3301      	adds	r3, #1
     44e:	7113      	strb	r3, [r2, #4]
     450:	3301      	adds	r3, #1
     452:	7153      	strb	r3, [r2, #5]
     454:	4b02      	ldr	r3, [pc, #8]	; (460 <_sercom_get_interrupt_vector+0x28>)
     456:	4798      	blx	r3
     458:	466b      	mov	r3, sp
     45a:	5618      	ldrsb	r0, [r3, r0]
     45c:	bd0e      	pop	{r1, r2, r3, pc}
     45e:	46c0      	nop			; (mov r8, r8)
     460:	000003cd 	.word	0x000003cd

00000464 <SERCOM0_Handler>:
     464:	b510      	push	{r4, lr}
     466:	4b02      	ldr	r3, [pc, #8]	; (470 <SERCOM0_Handler+0xc>)
     468:	2000      	movs	r0, #0
     46a:	681b      	ldr	r3, [r3, #0]
     46c:	4798      	blx	r3
     46e:	bd10      	pop	{r4, pc}
     470:	20000044 	.word	0x20000044

00000474 <SERCOM1_Handler>:
     474:	b510      	push	{r4, lr}
     476:	4b02      	ldr	r3, [pc, #8]	; (480 <SERCOM1_Handler+0xc>)
     478:	2001      	movs	r0, #1
     47a:	685b      	ldr	r3, [r3, #4]
     47c:	4798      	blx	r3
     47e:	bd10      	pop	{r4, pc}
     480:	20000044 	.word	0x20000044

00000484 <SERCOM2_Handler>:
     484:	b510      	push	{r4, lr}
     486:	4b02      	ldr	r3, [pc, #8]	; (490 <SERCOM2_Handler+0xc>)
     488:	2002      	movs	r0, #2
     48a:	689b      	ldr	r3, [r3, #8]
     48c:	4798      	blx	r3
     48e:	bd10      	pop	{r4, pc}
     490:	20000044 	.word	0x20000044

00000494 <SERCOM3_Handler>:
     494:	b510      	push	{r4, lr}
     496:	4b02      	ldr	r3, [pc, #8]	; (4a0 <SERCOM3_Handler+0xc>)
     498:	2003      	movs	r0, #3
     49a:	68db      	ldr	r3, [r3, #12]
     49c:	4798      	blx	r3
     49e:	bd10      	pop	{r4, pc}
     4a0:	20000044 	.word	0x20000044

000004a4 <SERCOM4_Handler>:
     4a4:	b510      	push	{r4, lr}
     4a6:	4b02      	ldr	r3, [pc, #8]	; (4b0 <SERCOM4_Handler+0xc>)
     4a8:	2004      	movs	r0, #4
     4aa:	691b      	ldr	r3, [r3, #16]
     4ac:	4798      	blx	r3
     4ae:	bd10      	pop	{r4, pc}
     4b0:	20000044 	.word	0x20000044

000004b4 <SERCOM5_Handler>:
     4b4:	b510      	push	{r4, lr}
     4b6:	4b02      	ldr	r3, [pc, #8]	; (4c0 <SERCOM5_Handler+0xc>)
     4b8:	2005      	movs	r0, #5
     4ba:	695b      	ldr	r3, [r3, #20]
     4bc:	4798      	blx	r3
     4be:	bd10      	pop	{r4, pc}
     4c0:	20000044 	.word	0x20000044

000004c4 <port_pin_set_output_level>:
     4c4:	2200      	movs	r2, #0
     4c6:	b510      	push	{r4, lr}
     4c8:	0943      	lsrs	r3, r0, #5
     4ca:	09c4      	lsrs	r4, r0, #7
     4cc:	4294      	cmp	r4, r2
     4ce:	d102      	bne.n	4d6 <port_pin_set_output_level+0x12>
     4d0:	01da      	lsls	r2, r3, #7
     4d2:	4b06      	ldr	r3, [pc, #24]	; (4ec <port_pin_set_output_level+0x28>)
     4d4:	18d2      	adds	r2, r2, r3
     4d6:	231f      	movs	r3, #31
     4d8:	4018      	ands	r0, r3
     4da:	3b1e      	subs	r3, #30
     4dc:	4083      	lsls	r3, r0
     4de:	2900      	cmp	r1, #0
     4e0:	d001      	beq.n	4e6 <port_pin_set_output_level+0x22>
     4e2:	6193      	str	r3, [r2, #24]
     4e4:	bd10      	pop	{r4, pc}
     4e6:	6153      	str	r3, [r2, #20]
     4e8:	e7fc      	b.n	4e4 <port_pin_set_output_level+0x20>
     4ea:	46c0      	nop			; (mov r8, r8)
     4ec:	40002800 	.word	0x40002800

000004f0 <spi_is_ready_to_write>:
     4f0:	6803      	ldr	r3, [r0, #0]
     4f2:	7e18      	ldrb	r0, [r3, #24]
     4f4:	2301      	movs	r3, #1
     4f6:	4018      	ands	r0, r3
     4f8:	4770      	bx	lr

000004fa <spi_is_ready_to_read>:
     4fa:	6803      	ldr	r3, [r0, #0]
     4fc:	7e18      	ldrb	r0, [r3, #24]
     4fe:	0740      	lsls	r0, r0, #29
     500:	0fc0      	lsrs	r0, r0, #31
     502:	4770      	bx	lr

00000504 <spi_write>:
     504:	b570      	push	{r4, r5, r6, lr}
     506:	4b06      	ldr	r3, [pc, #24]	; (520 <spi_write+0x1c>)
     508:	000c      	movs	r4, r1
     50a:	6805      	ldr	r5, [r0, #0]
     50c:	4798      	blx	r3
     50e:	2305      	movs	r3, #5
     510:	2800      	cmp	r0, #0
     512:	d003      	beq.n	51c <spi_write+0x18>
     514:	2300      	movs	r3, #0
     516:	05e4      	lsls	r4, r4, #23
     518:	0de4      	lsrs	r4, r4, #23
     51a:	62ac      	str	r4, [r5, #40]	; 0x28
     51c:	0018      	movs	r0, r3
     51e:	bd70      	pop	{r4, r5, r6, pc}
     520:	000004f1 	.word	0x000004f1

00000524 <spi_read>:
     524:	b570      	push	{r4, r5, r6, lr}
     526:	4b0d      	ldr	r3, [pc, #52]	; (55c <spi_read+0x38>)
     528:	0006      	movs	r6, r0
     52a:	000c      	movs	r4, r1
     52c:	6805      	ldr	r5, [r0, #0]
     52e:	4798      	blx	r3
     530:	2210      	movs	r2, #16
     532:	2800      	cmp	r0, #0
     534:	d00d      	beq.n	552 <spi_read+0x2e>
     536:	2304      	movs	r3, #4
     538:	8b69      	ldrh	r1, [r5, #26]
     53a:	2200      	movs	r2, #0
     53c:	4219      	tst	r1, r3
     53e:	d001      	beq.n	544 <spi_read+0x20>
     540:	836b      	strh	r3, [r5, #26]
     542:	321e      	adds	r2, #30
     544:	79b3      	ldrb	r3, [r6, #6]
     546:	2b01      	cmp	r3, #1
     548:	d105      	bne.n	556 <spi_read+0x32>
     54a:	6aab      	ldr	r3, [r5, #40]	; 0x28
     54c:	05db      	lsls	r3, r3, #23
     54e:	0ddb      	lsrs	r3, r3, #23
     550:	8023      	strh	r3, [r4, #0]
     552:	0010      	movs	r0, r2
     554:	bd70      	pop	{r4, r5, r6, pc}
     556:	6aab      	ldr	r3, [r5, #40]	; 0x28
     558:	b2db      	uxtb	r3, r3
     55a:	e7f9      	b.n	550 <spi_read+0x2c>
     55c:	000004fb 	.word	0x000004fb

00000560 <spi_init>:
     560:	b5f0      	push	{r4, r5, r6, r7, lr}
     562:	0005      	movs	r5, r0
     564:	6029      	str	r1, [r5, #0]
     566:	000e      	movs	r6, r1
     568:	0014      	movs	r4, r2
     56a:	680a      	ldr	r2, [r1, #0]
     56c:	2102      	movs	r1, #2
     56e:	b087      	sub	sp, #28
     570:	231c      	movs	r3, #28
     572:	420a      	tst	r2, r1
     574:	d000      	beq.n	578 <spi_init+0x18>
     576:	e0d3      	b.n	720 <spi_init+0x1c0>
     578:	2701      	movs	r7, #1
     57a:	6832      	ldr	r2, [r6, #0]
     57c:	3b17      	subs	r3, #23
     57e:	423a      	tst	r2, r7
     580:	d000      	beq.n	584 <spi_init+0x24>
     582:	e0cd      	b.n	720 <spi_init+0x1c0>
     584:	4b6e      	ldr	r3, [pc, #440]	; (740 <spi_init+0x1e0>)
     586:	0030      	movs	r0, r6
     588:	4798      	blx	r3
     58a:	4b6e      	ldr	r3, [pc, #440]	; (744 <spi_init+0x1e4>)
     58c:	2805      	cmp	r0, #5
     58e:	d100      	bne.n	592 <spi_init+0x32>
     590:	e0c9      	b.n	726 <spi_init+0x1c6>
     592:	4087      	lsls	r7, r0
     594:	0002      	movs	r2, r0
     596:	69d9      	ldr	r1, [r3, #28]
     598:	3212      	adds	r2, #18
     59a:	430f      	orrs	r7, r1
     59c:	61df      	str	r7, [r3, #28]
     59e:	4669      	mov	r1, sp
     5a0:	1d63      	adds	r3, r4, #5
     5a2:	7fdb      	ldrb	r3, [r3, #31]
     5a4:	b2d7      	uxtb	r7, r2
     5a6:	700b      	strb	r3, [r1, #0]
     5a8:	0038      	movs	r0, r7
     5aa:	4b67      	ldr	r3, [pc, #412]	; (748 <spi_init+0x1e8>)
     5ac:	4798      	blx	r3
     5ae:	0038      	movs	r0, r7
     5b0:	4b66      	ldr	r3, [pc, #408]	; (74c <spi_init+0x1ec>)
     5b2:	4798      	blx	r3
     5b4:	1d63      	adds	r3, r4, #5
     5b6:	7fd8      	ldrb	r0, [r3, #31]
     5b8:	2100      	movs	r1, #0
     5ba:	4b65      	ldr	r3, [pc, #404]	; (750 <spi_init+0x1f0>)
     5bc:	4798      	blx	r3
     5be:	7823      	ldrb	r3, [r4, #0]
     5c0:	2b01      	cmp	r3, #1
     5c2:	d103      	bne.n	5cc <spi_init+0x6c>
     5c4:	6832      	ldr	r2, [r6, #0]
     5c6:	330b      	adds	r3, #11
     5c8:	4313      	orrs	r3, r2
     5ca:	6033      	str	r3, [r6, #0]
     5cc:	7823      	ldrb	r3, [r4, #0]
     5ce:	2b00      	cmp	r3, #0
     5d0:	d103      	bne.n	5da <spi_init+0x7a>
     5d2:	6832      	ldr	r2, [r6, #0]
     5d4:	3308      	adds	r3, #8
     5d6:	4313      	orrs	r3, r2
     5d8:	6033      	str	r3, [r6, #0]
     5da:	002b      	movs	r3, r5
     5dc:	002a      	movs	r2, r5
     5de:	2600      	movs	r6, #0
     5e0:	330c      	adds	r3, #12
     5e2:	3228      	adds	r2, #40	; 0x28
     5e4:	c340      	stmia	r3!, {r6}
     5e6:	429a      	cmp	r2, r3
     5e8:	d1fc      	bne.n	5e4 <spi_init+0x84>
     5ea:	002b      	movs	r3, r5
     5ec:	3336      	adds	r3, #54	; 0x36
     5ee:	86ae      	strh	r6, [r5, #52]	; 0x34
     5f0:	62ee      	str	r6, [r5, #44]	; 0x2c
     5f2:	862e      	strh	r6, [r5, #48]	; 0x30
     5f4:	62ae      	str	r6, [r5, #40]	; 0x28
     5f6:	701e      	strb	r6, [r3, #0]
     5f8:	705e      	strb	r6, [r3, #1]
     5fa:	709e      	strb	r6, [r3, #2]
     5fc:	2303      	movs	r3, #3
     5fe:	6828      	ldr	r0, [r5, #0]
     600:	726b      	strb	r3, [r5, #9]
     602:	4b4f      	ldr	r3, [pc, #316]	; (740 <spi_init+0x1e0>)
     604:	712e      	strb	r6, [r5, #4]
     606:	4798      	blx	r3
     608:	0007      	movs	r7, r0
     60a:	4b52      	ldr	r3, [pc, #328]	; (754 <spi_init+0x1f4>)
     60c:	4952      	ldr	r1, [pc, #328]	; (758 <spi_init+0x1f8>)
     60e:	4798      	blx	r3
     610:	4b52      	ldr	r3, [pc, #328]	; (75c <spi_init+0x1fc>)
     612:	00bf      	lsls	r7, r7, #2
     614:	466a      	mov	r2, sp
     616:	50fd      	str	r5, [r7, r3]
     618:	2380      	movs	r3, #128	; 0x80
     61a:	7113      	strb	r3, [r2, #4]
     61c:	2301      	movs	r3, #1
     61e:	7193      	strb	r3, [r2, #6]
     620:	7823      	ldrb	r3, [r4, #0]
     622:	682f      	ldr	r7, [r5, #0]
     624:	7156      	strb	r6, [r2, #5]
     626:	71d6      	strb	r6, [r2, #7]
     628:	2b00      	cmp	r3, #0
     62a:	d100      	bne.n	62e <spi_init+0xce>
     62c:	7196      	strb	r6, [r2, #6]
     62e:	2600      	movs	r6, #0
     630:	6aa3      	ldr	r3, [r4, #40]	; 0x28
     632:	9302      	str	r3, [sp, #8]
     634:	6ae3      	ldr	r3, [r4, #44]	; 0x2c
     636:	9303      	str	r3, [sp, #12]
     638:	6b23      	ldr	r3, [r4, #48]	; 0x30
     63a:	9304      	str	r3, [sp, #16]
     63c:	6b63      	ldr	r3, [r4, #52]	; 0x34
     63e:	9305      	str	r3, [sp, #20]
     640:	00b3      	lsls	r3, r6, #2
     642:	aa02      	add	r2, sp, #8
     644:	5898      	ldr	r0, [r3, r2]
     646:	b2f1      	uxtb	r1, r6
     648:	2800      	cmp	r0, #0
     64a:	d102      	bne.n	652 <spi_init+0xf2>
     64c:	0038      	movs	r0, r7
     64e:	4b44      	ldr	r3, [pc, #272]	; (760 <spi_init+0x200>)
     650:	4798      	blx	r3
     652:	1c43      	adds	r3, r0, #1
     654:	d006      	beq.n	664 <spi_init+0x104>
     656:	466b      	mov	r3, sp
     658:	7118      	strb	r0, [r3, #4]
     65a:	0c00      	lsrs	r0, r0, #16
     65c:	b2c0      	uxtb	r0, r0
     65e:	a901      	add	r1, sp, #4
     660:	4b40      	ldr	r3, [pc, #256]	; (764 <spi_init+0x204>)
     662:	4798      	blx	r3
     664:	3601      	adds	r6, #1
     666:	2e04      	cmp	r6, #4
     668:	d1ea      	bne.n	640 <spi_init+0xe0>
     66a:	7823      	ldrb	r3, [r4, #0]
     66c:	716b      	strb	r3, [r5, #5]
     66e:	7c23      	ldrb	r3, [r4, #16]
     670:	71ab      	strb	r3, [r5, #6]
     672:	7ca3      	ldrb	r3, [r4, #18]
     674:	71eb      	strb	r3, [r5, #7]
     676:	7d23      	ldrb	r3, [r4, #20]
     678:	722b      	strb	r3, [r5, #8]
     67a:	466b      	mov	r3, sp
     67c:	1c9e      	adds	r6, r3, #2
     67e:	2300      	movs	r3, #0
     680:	8033      	strh	r3, [r6, #0]
     682:	7823      	ldrb	r3, [r4, #0]
     684:	2b01      	cmp	r3, #1
     686:	d110      	bne.n	6aa <spi_init+0x14a>
     688:	4b2d      	ldr	r3, [pc, #180]	; (740 <spi_init+0x1e0>)
     68a:	6828      	ldr	r0, [r5, #0]
     68c:	4798      	blx	r3
     68e:	3012      	adds	r0, #18
     690:	4b35      	ldr	r3, [pc, #212]	; (768 <spi_init+0x208>)
     692:	b2c0      	uxtb	r0, r0
     694:	4798      	blx	r3
     696:	4b35      	ldr	r3, [pc, #212]	; (76c <spi_init+0x20c>)
     698:	0001      	movs	r1, r0
     69a:	0032      	movs	r2, r6
     69c:	69a0      	ldr	r0, [r4, #24]
     69e:	4798      	blx	r3
     6a0:	2317      	movs	r3, #23
     6a2:	2800      	cmp	r0, #0
     6a4:	d13c      	bne.n	720 <spi_init+0x1c0>
     6a6:	7833      	ldrb	r3, [r6, #0]
     6a8:	733b      	strb	r3, [r7, #12]
     6aa:	7823      	ldrb	r3, [r4, #0]
     6ac:	2b00      	cmp	r3, #0
     6ae:	d143      	bne.n	738 <spi_init+0x1d8>
     6b0:	7fe1      	ldrb	r1, [r4, #31]
     6b2:	7fa5      	ldrb	r5, [r4, #30]
     6b4:	6a7b      	ldr	r3, [r7, #36]	; 0x24
     6b6:	0409      	lsls	r1, r1, #16
     6b8:	4329      	orrs	r1, r5
     6ba:	4319      	orrs	r1, r3
     6bc:	69a0      	ldr	r0, [r4, #24]
     6be:	8ba2      	ldrh	r2, [r4, #28]
     6c0:	1c63      	adds	r3, r4, #1
     6c2:	6279      	str	r1, [r7, #36]	; 0x24
     6c4:	7fdb      	ldrb	r3, [r3, #31]
     6c6:	2b00      	cmp	r3, #0
     6c8:	d133      	bne.n	732 <spi_init+0x1d2>
     6ca:	0013      	movs	r3, r2
     6cc:	68a1      	ldr	r1, [r4, #8]
     6ce:	6862      	ldr	r2, [r4, #4]
     6d0:	430a      	orrs	r2, r1
     6d2:	68e1      	ldr	r1, [r4, #12]
     6d4:	430a      	orrs	r2, r1
     6d6:	7c21      	ldrb	r1, [r4, #16]
     6d8:	4302      	orrs	r2, r0
     6da:	430b      	orrs	r3, r1
     6dc:	7c61      	ldrb	r1, [r4, #17]
     6de:	2900      	cmp	r1, #0
     6e0:	d103      	bne.n	6ea <spi_init+0x18a>
     6e2:	4923      	ldr	r1, [pc, #140]	; (770 <spi_init+0x210>)
     6e4:	7889      	ldrb	r1, [r1, #2]
     6e6:	0789      	lsls	r1, r1, #30
     6e8:	d501      	bpl.n	6ee <spi_init+0x18e>
     6ea:	2180      	movs	r1, #128	; 0x80
     6ec:	430a      	orrs	r2, r1
     6ee:	7ca1      	ldrb	r1, [r4, #18]
     6f0:	2900      	cmp	r1, #0
     6f2:	d002      	beq.n	6fa <spi_init+0x19a>
     6f4:	2180      	movs	r1, #128	; 0x80
     6f6:	0289      	lsls	r1, r1, #10
     6f8:	430b      	orrs	r3, r1
     6fa:	7ce1      	ldrb	r1, [r4, #19]
     6fc:	2900      	cmp	r1, #0
     6fe:	d002      	beq.n	706 <spi_init+0x1a6>
     700:	2180      	movs	r1, #128	; 0x80
     702:	0089      	lsls	r1, r1, #2
     704:	430b      	orrs	r3, r1
     706:	7d21      	ldrb	r1, [r4, #20]
     708:	2900      	cmp	r1, #0
     70a:	d002      	beq.n	712 <spi_init+0x1b2>
     70c:	2180      	movs	r1, #128	; 0x80
     70e:	0189      	lsls	r1, r1, #6
     710:	430b      	orrs	r3, r1
     712:	6839      	ldr	r1, [r7, #0]
     714:	430a      	orrs	r2, r1
     716:	603a      	str	r2, [r7, #0]
     718:	687a      	ldr	r2, [r7, #4]
     71a:	4313      	orrs	r3, r2
     71c:	607b      	str	r3, [r7, #4]
     71e:	2300      	movs	r3, #0
     720:	0018      	movs	r0, r3
     722:	b007      	add	sp, #28
     724:	bdf0      	pop	{r4, r5, r6, r7, pc}
     726:	2102      	movs	r1, #2
     728:	6a1a      	ldr	r2, [r3, #32]
     72a:	430a      	orrs	r2, r1
     72c:	621a      	str	r2, [r3, #32]
     72e:	2218      	movs	r2, #24
     730:	e735      	b.n	59e <spi_init+0x3e>
     732:	2340      	movs	r3, #64	; 0x40
     734:	4313      	orrs	r3, r2
     736:	e7c9      	b.n	6cc <spi_init+0x16c>
     738:	2300      	movs	r3, #0
     73a:	0018      	movs	r0, r3
     73c:	e7c6      	b.n	6cc <spi_init+0x16c>
     73e:	46c0      	nop			; (mov r8, r8)
     740:	000003cd 	.word	0x000003cd
     744:	40000400 	.word	0x40000400
     748:	00000da5 	.word	0x00000da5
     74c:	00000d45 	.word	0x00000d45
     750:	00000231 	.word	0x00000231
     754:	00000401 	.word	0x00000401
     758:	00000865 	.word	0x00000865
     75c:	2000008c 	.word	0x2000008c
     760:	00000275 	.word	0x00000275
     764:	00000e7d 	.word	0x00000e7d
     768:	00000dc9 	.word	0x00000dc9
     76c:	00000209 	.word	0x00000209
     770:	41002000 	.word	0x41002000

00000774 <spi_select_slave>:
     774:	b5f0      	push	{r4, r5, r6, r7, lr}
     776:	7943      	ldrb	r3, [r0, #5]
     778:	b085      	sub	sp, #20
     77a:	0005      	movs	r5, r0
     77c:	000e      	movs	r6, r1
     77e:	0014      	movs	r4, r2
     780:	9300      	str	r3, [sp, #0]
     782:	2015      	movs	r0, #21
     784:	2b01      	cmp	r3, #1
     786:	d104      	bne.n	792 <spi_select_slave+0x1e>
     788:	7a2b      	ldrb	r3, [r5, #8]
     78a:	9301      	str	r3, [sp, #4]
     78c:	2b00      	cmp	r3, #0
     78e:	d002      	beq.n	796 <spi_select_slave+0x22>
     790:	2000      	movs	r0, #0
     792:	b005      	add	sp, #20
     794:	bdf0      	pop	{r4, r5, r6, r7, pc}
     796:	4f18      	ldr	r7, [pc, #96]	; (7f8 <spi_select_slave+0x84>)
     798:	2a00      	cmp	r2, #0
     79a:	d027      	beq.n	7ec <spi_select_slave+0x78>
     79c:	784c      	ldrb	r4, [r1, #1]
     79e:	2c00      	cmp	r4, #0
     7a0:	d020      	beq.n	7e4 <spi_select_slave+0x70>
     7a2:	4b16      	ldr	r3, [pc, #88]	; (7fc <spi_select_slave+0x88>)
     7a4:	0028      	movs	r0, r5
     7a6:	4798      	blx	r3
     7a8:	0003      	movs	r3, r0
     7aa:	7830      	ldrb	r0, [r6, #0]
     7ac:	2b00      	cmp	r3, #0
     7ae:	d103      	bne.n	7b8 <spi_select_slave+0x44>
     7b0:	9900      	ldr	r1, [sp, #0]
     7b2:	47b8      	blx	r7
     7b4:	2005      	movs	r0, #5
     7b6:	e7ec      	b.n	792 <spi_select_slave+0x1e>
     7b8:	9901      	ldr	r1, [sp, #4]
     7ba:	47b8      	blx	r7
     7bc:	4b10      	ldr	r3, [pc, #64]	; (800 <spi_select_slave+0x8c>)
     7be:	78b1      	ldrb	r1, [r6, #2]
     7c0:	0028      	movs	r0, r5
     7c2:	4798      	blx	r3
     7c4:	79eb      	ldrb	r3, [r5, #7]
     7c6:	2b00      	cmp	r3, #0
     7c8:	d1e2      	bne.n	790 <spi_select_slave+0x1c>
     7ca:	0028      	movs	r0, r5
     7cc:	4b0d      	ldr	r3, [pc, #52]	; (804 <spi_select_slave+0x90>)
     7ce:	4798      	blx	r3
     7d0:	2800      	cmp	r0, #0
     7d2:	d0fa      	beq.n	7ca <spi_select_slave+0x56>
     7d4:	2400      	movs	r4, #0
     7d6:	ab02      	add	r3, sp, #8
     7d8:	1d99      	adds	r1, r3, #6
     7da:	0028      	movs	r0, r5
     7dc:	4b0a      	ldr	r3, [pc, #40]	; (808 <spi_select_slave+0x94>)
     7de:	800c      	strh	r4, [r1, #0]
     7e0:	4798      	blx	r3
     7e2:	e7d5      	b.n	790 <spi_select_slave+0x1c>
     7e4:	7808      	ldrb	r0, [r1, #0]
     7e6:	0021      	movs	r1, r4
     7e8:	47b8      	blx	r7
     7ea:	e7d1      	b.n	790 <spi_select_slave+0x1c>
     7ec:	7808      	ldrb	r0, [r1, #0]
     7ee:	9900      	ldr	r1, [sp, #0]
     7f0:	47b8      	blx	r7
     7f2:	0020      	movs	r0, r4
     7f4:	e7cd      	b.n	792 <spi_select_slave+0x1e>
     7f6:	46c0      	nop			; (mov r8, r8)
     7f8:	000004c5 	.word	0x000004c5
     7fc:	000004f1 	.word	0x000004f1
     800:	00000505 	.word	0x00000505
     804:	000004fb 	.word	0x000004fb
     808:	00000525 	.word	0x00000525

0000080c <spi_register_callback>:
     80c:	1c93      	adds	r3, r2, #2
     80e:	009b      	lsls	r3, r3, #2
     810:	18c3      	adds	r3, r0, r3
     812:	6059      	str	r1, [r3, #4]
     814:	2301      	movs	r3, #1
     816:	4093      	lsls	r3, r2
     818:	001a      	movs	r2, r3
     81a:	3036      	adds	r0, #54	; 0x36
     81c:	7803      	ldrb	r3, [r0, #0]
     81e:	4313      	orrs	r3, r2
     820:	7003      	strb	r3, [r0, #0]
     822:	4770      	bx	lr

00000824 <spi_transceive_buffer_job>:
     824:	b570      	push	{r4, r5, r6, lr}
     826:	2417      	movs	r4, #23
     828:	2b00      	cmp	r3, #0
     82a:	d018      	beq.n	85e <spi_transceive_buffer_job+0x3a>
     82c:	79c5      	ldrb	r5, [r0, #7]
     82e:	3405      	adds	r4, #5
     830:	2d00      	cmp	r5, #0
     832:	d014      	beq.n	85e <spi_transceive_buffer_job+0x3a>
     834:	0005      	movs	r5, r0
     836:	3538      	adds	r5, #56	; 0x38
     838:	782e      	ldrb	r6, [r5, #0]
     83a:	3c17      	subs	r4, #23
     83c:	42a6      	cmp	r6, r4
     83e:	d00e      	beq.n	85e <spi_transceive_buffer_job+0x3a>
     840:	6282      	str	r2, [r0, #40]	; 0x28
     842:	2202      	movs	r2, #2
     844:	8683      	strh	r3, [r0, #52]	; 0x34
     846:	62c1      	str	r1, [r0, #44]	; 0x2c
     848:	8603      	strh	r3, [r0, #48]	; 0x30
     84a:	702c      	strb	r4, [r5, #0]
     84c:	6803      	ldr	r3, [r0, #0]
     84e:	7242      	strb	r2, [r0, #9]
     850:	759c      	strb	r4, [r3, #22]
     852:	2400      	movs	r4, #0
     854:	7941      	ldrb	r1, [r0, #5]
     856:	42a1      	cmp	r1, r4
     858:	d101      	bne.n	85e <spi_transceive_buffer_job+0x3a>
     85a:	761a      	strb	r2, [r3, #24]
     85c:	759a      	strb	r2, [r3, #22]
     85e:	0020      	movs	r0, r4
     860:	bd70      	pop	{r4, r5, r6, pc}
	...

00000864 <_spi_interrupt_handler>:
     864:	b5f8      	push	{r3, r4, r5, r6, r7, lr}
     866:	4b7c      	ldr	r3, [pc, #496]	; (a58 <_spi_interrupt_handler+0x1f4>)
     868:	0080      	lsls	r0, r0, #2
     86a:	58c4      	ldr	r4, [r0, r3]
     86c:	0023      	movs	r3, r4
     86e:	0022      	movs	r2, r4
     870:	3337      	adds	r3, #55	; 0x37
     872:	3236      	adds	r2, #54	; 0x36
     874:	6825      	ldr	r5, [r4, #0]
     876:	781b      	ldrb	r3, [r3, #0]
     878:	7816      	ldrb	r6, [r2, #0]
     87a:	401e      	ands	r6, r3
     87c:	7e2b      	ldrb	r3, [r5, #24]
     87e:	7daf      	ldrb	r7, [r5, #22]
     880:	401f      	ands	r7, r3
     882:	07fb      	lsls	r3, r7, #31
     884:	d539      	bpl.n	8fa <_spi_interrupt_handler+0x96>
     886:	7962      	ldrb	r2, [r4, #5]
     888:	0013      	movs	r3, r2
     88a:	2a01      	cmp	r2, #1
     88c:	d133      	bne.n	8f6 <_spi_interrupt_handler+0x92>
     88e:	7a63      	ldrb	r3, [r4, #9]
     890:	2b00      	cmp	r3, #0
     892:	d10d      	bne.n	8b0 <_spi_interrupt_handler+0x4c>
     894:	4b71      	ldr	r3, [pc, #452]	; (a5c <_spi_interrupt_handler+0x1f8>)
     896:	881b      	ldrh	r3, [r3, #0]
     898:	62ab      	str	r3, [r5, #40]	; 0x28
     89a:	8e63      	ldrh	r3, [r4, #50]	; 0x32
     89c:	3b01      	subs	r3, #1
     89e:	b29b      	uxth	r3, r3
     8a0:	8663      	strh	r3, [r4, #50]	; 0x32
     8a2:	8e63      	ldrh	r3, [r4, #50]	; 0x32
     8a4:	2b00      	cmp	r3, #0
     8a6:	d100      	bne.n	8aa <_spi_interrupt_handler+0x46>
     8a8:	752a      	strb	r2, [r5, #20]
     8aa:	7963      	ldrb	r3, [r4, #5]
     8ac:	2b01      	cmp	r3, #1
     8ae:	d122      	bne.n	8f6 <_spi_interrupt_handler+0x92>
     8b0:	7a63      	ldrb	r3, [r4, #9]
     8b2:	2b00      	cmp	r3, #0
     8b4:	d021      	beq.n	8fa <_spi_interrupt_handler+0x96>
     8b6:	6ae1      	ldr	r1, [r4, #44]	; 0x2c
     8b8:	6822      	ldr	r2, [r4, #0]
     8ba:	1c48      	adds	r0, r1, #1
     8bc:	780b      	ldrb	r3, [r1, #0]
     8be:	62e0      	str	r0, [r4, #44]	; 0x2c
     8c0:	79a0      	ldrb	r0, [r4, #6]
     8c2:	b2db      	uxtb	r3, r3
     8c4:	2801      	cmp	r0, #1
     8c6:	d100      	bne.n	8ca <_spi_interrupt_handler+0x66>
     8c8:	e074      	b.n	9b4 <_spi_interrupt_handler+0x150>
     8ca:	b29b      	uxth	r3, r3
     8cc:	05db      	lsls	r3, r3, #23
     8ce:	0ddb      	lsrs	r3, r3, #23
     8d0:	6293      	str	r3, [r2, #40]	; 0x28
     8d2:	8ea3      	ldrh	r3, [r4, #52]	; 0x34
     8d4:	3b01      	subs	r3, #1
     8d6:	b29b      	uxth	r3, r3
     8d8:	86a3      	strh	r3, [r4, #52]	; 0x34
     8da:	8ea3      	ldrh	r3, [r4, #52]	; 0x34
     8dc:	2b00      	cmp	r3, #0
     8de:	d10c      	bne.n	8fa <_spi_interrupt_handler+0x96>
     8e0:	3301      	adds	r3, #1
     8e2:	752b      	strb	r3, [r5, #20]
     8e4:	7a63      	ldrb	r3, [r4, #9]
     8e6:	2b01      	cmp	r3, #1
     8e8:	d107      	bne.n	8fa <_spi_interrupt_handler+0x96>
     8ea:	79e3      	ldrb	r3, [r4, #7]
     8ec:	2b00      	cmp	r3, #0
     8ee:	d104      	bne.n	8fa <_spi_interrupt_handler+0x96>
     8f0:	3302      	adds	r3, #2
     8f2:	75ab      	strb	r3, [r5, #22]
     8f4:	e001      	b.n	8fa <_spi_interrupt_handler+0x96>
     8f6:	2b00      	cmp	r3, #0
     8f8:	d0da      	beq.n	8b0 <_spi_interrupt_handler+0x4c>
     8fa:	2104      	movs	r1, #4
     8fc:	420f      	tst	r7, r1
     8fe:	d015      	beq.n	92c <_spi_interrupt_handler+0xc8>
     900:	8b6b      	ldrh	r3, [r5, #26]
     902:	420b      	tst	r3, r1
     904:	d05c      	beq.n	9c0 <_spi_interrupt_handler+0x15c>
     906:	7a63      	ldrb	r3, [r4, #9]
     908:	2b01      	cmp	r3, #1
     90a:	d00c      	beq.n	926 <_spi_interrupt_handler+0xc2>
     90c:	0023      	movs	r3, r4
     90e:	221e      	movs	r2, #30
     910:	3338      	adds	r3, #56	; 0x38
     912:	701a      	strb	r2, [r3, #0]
     914:	2303      	movs	r3, #3
     916:	7263      	strb	r3, [r4, #9]
     918:	3302      	adds	r3, #2
     91a:	752b      	strb	r3, [r5, #20]
     91c:	0733      	lsls	r3, r6, #28
     91e:	d502      	bpl.n	926 <_spi_interrupt_handler+0xc2>
     920:	0020      	movs	r0, r4
     922:	69a3      	ldr	r3, [r4, #24]
     924:	4798      	blx	r3
     926:	6aab      	ldr	r3, [r5, #40]	; 0x28
     928:	2304      	movs	r3, #4
     92a:	836b      	strh	r3, [r5, #26]
     92c:	2202      	movs	r2, #2
     92e:	4217      	tst	r7, r2
     930:	d027      	beq.n	982 <_spi_interrupt_handler+0x11e>
     932:	7963      	ldrb	r3, [r4, #5]
     934:	2b00      	cmp	r3, #0
     936:	d10e      	bne.n	956 <_spi_interrupt_handler+0xf2>
     938:	2107      	movs	r1, #7
     93a:	7529      	strb	r1, [r5, #20]
     93c:	762a      	strb	r2, [r5, #24]
     93e:	3201      	adds	r2, #1
     940:	7262      	strb	r2, [r4, #9]
     942:	0022      	movs	r2, r4
     944:	3238      	adds	r2, #56	; 0x38
     946:	86a3      	strh	r3, [r4, #52]	; 0x34
     948:	8623      	strh	r3, [r4, #48]	; 0x30
     94a:	7013      	strb	r3, [r2, #0]
     94c:	06f3      	lsls	r3, r6, #27
     94e:	d502      	bpl.n	956 <_spi_interrupt_handler+0xf2>
     950:	0020      	movs	r0, r4
     952:	69e3      	ldr	r3, [r4, #28]
     954:	4798      	blx	r3
     956:	7963      	ldrb	r3, [r4, #5]
     958:	2b01      	cmp	r3, #1
     95a:	d112      	bne.n	982 <_spi_interrupt_handler+0x11e>
     95c:	7a63      	ldrb	r3, [r4, #9]
     95e:	b2db      	uxtb	r3, r3
     960:	2b01      	cmp	r3, #1
     962:	d10e      	bne.n	982 <_spi_interrupt_handler+0x11e>
     964:	79e2      	ldrb	r2, [r4, #7]
     966:	2a00      	cmp	r2, #0
     968:	d10b      	bne.n	982 <_spi_interrupt_handler+0x11e>
     96a:	2102      	movs	r1, #2
     96c:	7529      	strb	r1, [r5, #20]
     96e:	3101      	adds	r1, #1
     970:	7261      	strb	r1, [r4, #9]
     972:	0021      	movs	r1, r4
     974:	3138      	adds	r1, #56	; 0x38
     976:	700a      	strb	r2, [r1, #0]
     978:	421e      	tst	r6, r3
     97a:	d002      	beq.n	982 <_spi_interrupt_handler+0x11e>
     97c:	0020      	movs	r0, r4
     97e:	68e3      	ldr	r3, [r4, #12]
     980:	4798      	blx	r3
     982:	2308      	movs	r3, #8
     984:	421f      	tst	r7, r3
     986:	d009      	beq.n	99c <_spi_interrupt_handler+0x138>
     988:	7962      	ldrb	r2, [r4, #5]
     98a:	2a00      	cmp	r2, #0
     98c:	d106      	bne.n	99c <_spi_interrupt_handler+0x138>
     98e:	752b      	strb	r3, [r5, #20]
     990:	762b      	strb	r3, [r5, #24]
     992:	06b3      	lsls	r3, r6, #26
     994:	d502      	bpl.n	99c <_spi_interrupt_handler+0x138>
     996:	0020      	movs	r0, r4
     998:	6a23      	ldr	r3, [r4, #32]
     99a:	4798      	blx	r3
     99c:	b27f      	sxtb	r7, r7
     99e:	2f00      	cmp	r7, #0
     9a0:	da07      	bge.n	9b2 <_spi_interrupt_handler+0x14e>
     9a2:	2380      	movs	r3, #128	; 0x80
     9a4:	752b      	strb	r3, [r5, #20]
     9a6:	762b      	strb	r3, [r5, #24]
     9a8:	0673      	lsls	r3, r6, #25
     9aa:	d502      	bpl.n	9b2 <_spi_interrupt_handler+0x14e>
     9ac:	6a63      	ldr	r3, [r4, #36]	; 0x24
     9ae:	0020      	movs	r0, r4
     9b0:	4798      	blx	r3
     9b2:	bdf8      	pop	{r3, r4, r5, r6, r7, pc}
     9b4:	7848      	ldrb	r0, [r1, #1]
     9b6:	3102      	adds	r1, #2
     9b8:	0200      	lsls	r0, r0, #8
     9ba:	4303      	orrs	r3, r0
     9bc:	62e1      	str	r1, [r4, #44]	; 0x2c
     9be:	e785      	b.n	8cc <_spi_interrupt_handler+0x68>
     9c0:	7a62      	ldrb	r2, [r4, #9]
     9c2:	6823      	ldr	r3, [r4, #0]
     9c4:	b2d2      	uxtb	r2, r2
     9c6:	6a9b      	ldr	r3, [r3, #40]	; 0x28
     9c8:	2a01      	cmp	r2, #1
     9ca:	d113      	bne.n	9f4 <_spi_interrupt_handler+0x190>
     9cc:	8e63      	ldrh	r3, [r4, #50]	; 0x32
     9ce:	3b01      	subs	r3, #1
     9d0:	b29b      	uxth	r3, r3
     9d2:	8663      	strh	r3, [r4, #50]	; 0x32
     9d4:	8e63      	ldrh	r3, [r4, #50]	; 0x32
     9d6:	b29b      	uxth	r3, r3
     9d8:	2b00      	cmp	r3, #0
     9da:	d1a7      	bne.n	92c <_spi_interrupt_handler+0xc8>
     9dc:	7529      	strb	r1, [r5, #20]
     9de:	0021      	movs	r1, r4
     9e0:	3138      	adds	r1, #56	; 0x38
     9e2:	700b      	strb	r3, [r1, #0]
     9e4:	3303      	adds	r3, #3
     9e6:	7263      	strb	r3, [r4, #9]
     9e8:	4216      	tst	r6, r2
     9ea:	d09f      	beq.n	92c <_spi_interrupt_handler+0xc8>
     9ec:	0020      	movs	r0, r4
     9ee:	68e3      	ldr	r3, [r4, #12]
     9f0:	4798      	blx	r3
     9f2:	e79b      	b.n	92c <_spi_interrupt_handler+0xc8>
     9f4:	05db      	lsls	r3, r3, #23
     9f6:	6aa1      	ldr	r1, [r4, #40]	; 0x28
     9f8:	0ddb      	lsrs	r3, r3, #23
     9fa:	b2da      	uxtb	r2, r3
     9fc:	700a      	strb	r2, [r1, #0]
     9fe:	6aa2      	ldr	r2, [r4, #40]	; 0x28
     a00:	1c51      	adds	r1, r2, #1
     a02:	62a1      	str	r1, [r4, #40]	; 0x28
     a04:	79a1      	ldrb	r1, [r4, #6]
     a06:	2901      	cmp	r1, #1
     a08:	d104      	bne.n	a14 <_spi_interrupt_handler+0x1b0>
     a0a:	0a1b      	lsrs	r3, r3, #8
     a0c:	7053      	strb	r3, [r2, #1]
     a0e:	6aa3      	ldr	r3, [r4, #40]	; 0x28
     a10:	3301      	adds	r3, #1
     a12:	62a3      	str	r3, [r4, #40]	; 0x28
     a14:	8e23      	ldrh	r3, [r4, #48]	; 0x30
     a16:	3b01      	subs	r3, #1
     a18:	b29b      	uxth	r3, r3
     a1a:	8623      	strh	r3, [r4, #48]	; 0x30
     a1c:	8e23      	ldrh	r3, [r4, #48]	; 0x30
     a1e:	b29b      	uxth	r3, r3
     a20:	2b00      	cmp	r3, #0
     a22:	d000      	beq.n	a26 <_spi_interrupt_handler+0x1c2>
     a24:	e782      	b.n	92c <_spi_interrupt_handler+0xc8>
     a26:	0022      	movs	r2, r4
     a28:	3238      	adds	r2, #56	; 0x38
     a2a:	7013      	strb	r3, [r2, #0]
     a2c:	3304      	adds	r3, #4
     a2e:	752b      	strb	r3, [r5, #20]
     a30:	7a62      	ldrb	r2, [r4, #9]
     a32:	2a02      	cmp	r2, #2
     a34:	d105      	bne.n	a42 <_spi_interrupt_handler+0x1de>
     a36:	421e      	tst	r6, r3
     a38:	d100      	bne.n	a3c <_spi_interrupt_handler+0x1d8>
     a3a:	e777      	b.n	92c <_spi_interrupt_handler+0xc8>
     a3c:	0020      	movs	r0, r4
     a3e:	6963      	ldr	r3, [r4, #20]
     a40:	e7d6      	b.n	9f0 <_spi_interrupt_handler+0x18c>
     a42:	7a63      	ldrb	r3, [r4, #9]
     a44:	2b00      	cmp	r3, #0
     a46:	d000      	beq.n	a4a <_spi_interrupt_handler+0x1e6>
     a48:	e770      	b.n	92c <_spi_interrupt_handler+0xc8>
     a4a:	07b3      	lsls	r3, r6, #30
     a4c:	d400      	bmi.n	a50 <_spi_interrupt_handler+0x1ec>
     a4e:	e76d      	b.n	92c <_spi_interrupt_handler+0xc8>
     a50:	0020      	movs	r0, r4
     a52:	6923      	ldr	r3, [r4, #16]
     a54:	e7cc      	b.n	9f0 <_spi_interrupt_handler+0x18c>
     a56:	46c0      	nop			; (mov r8, r8)
     a58:	2000008c 	.word	0x2000008c
     a5c:	200000a4 	.word	0x200000a4

00000a60 <_system_dfll_wait_for_sync>:
     a60:	2380      	movs	r3, #128	; 0x80
     a62:	4903      	ldr	r1, [pc, #12]	; (a70 <_system_dfll_wait_for_sync+0x10>)
     a64:	005b      	lsls	r3, r3, #1
     a66:	68ca      	ldr	r2, [r1, #12]
     a68:	421a      	tst	r2, r3
     a6a:	d0fc      	beq.n	a66 <_system_dfll_wait_for_sync+0x6>
     a6c:	4770      	bx	lr
     a6e:	46c0      	nop			; (mov r8, r8)
     a70:	40000c00 	.word	0x40000c00

00000a74 <system_switch_performance_level>:
     a74:	2380      	movs	r3, #128	; 0x80
     a76:	05db      	lsls	r3, r3, #23
     a78:	789a      	ldrb	r2, [r3, #2]
     a7a:	4282      	cmp	r2, r0
     a7c:	d102      	bne.n	a84 <system_switch_performance_level+0x10>
     a7e:	2100      	movs	r1, #0
     a80:	0008      	movs	r0, r1
     a82:	4770      	bx	lr
     a84:	789a      	ldrb	r2, [r3, #2]
     a86:	2117      	movs	r1, #23
     a88:	b252      	sxtb	r2, r2
     a8a:	2a00      	cmp	r2, #0
     a8c:	dbf8      	blt.n	a80 <system_switch_performance_level+0xc>
     a8e:	2201      	movs	r2, #1
     a90:	719a      	strb	r2, [r3, #6]
     a92:	7098      	strb	r0, [r3, #2]
     a94:	799a      	ldrb	r2, [r3, #6]
     a96:	2a00      	cmp	r2, #0
     a98:	d0fc      	beq.n	a94 <system_switch_performance_level+0x20>
     a9a:	e7f0      	b.n	a7e <system_switch_performance_level+0xa>

00000a9c <system_clock_source_get_hz>:
     a9c:	b570      	push	{r4, r5, r6, lr}
     a9e:	2808      	cmp	r0, #8
     aa0:	d806      	bhi.n	ab0 <system_clock_source_get_hz+0x14>
     aa2:	f000 fb17 	bl	10d4 <__gnu_thumb1_case_uqi>
     aa6:	0508      	.short	0x0508
     aa8:	132e2e05 	.word	0x132e2e05
     aac:	160b      	.short	0x160b
     aae:	26          	.byte	0x26
     aaf:	00          	.byte	0x00
     ab0:	2400      	movs	r4, #0
     ab2:	0020      	movs	r0, r4
     ab4:	bd70      	pop	{r4, r5, r6, pc}
     ab6:	4b15      	ldr	r3, [pc, #84]	; (b0c <system_clock_source_get_hz+0x70>)
     ab8:	691c      	ldr	r4, [r3, #16]
     aba:	e7fa      	b.n	ab2 <system_clock_source_get_hz+0x16>
     abc:	4b14      	ldr	r3, [pc, #80]	; (b10 <system_clock_source_get_hz+0x74>)
     abe:	7d1c      	ldrb	r4, [r3, #20]
     ac0:	0724      	lsls	r4, r4, #28
     ac2:	0fa4      	lsrs	r4, r4, #30
     ac4:	1c60      	adds	r0, r4, #1
     ac6:	4c13      	ldr	r4, [pc, #76]	; (b14 <system_clock_source_get_hz+0x78>)
     ac8:	4344      	muls	r4, r0
     aca:	e7f2      	b.n	ab2 <system_clock_source_get_hz+0x16>
     acc:	4b0f      	ldr	r3, [pc, #60]	; (b0c <system_clock_source_get_hz+0x70>)
     ace:	695c      	ldr	r4, [r3, #20]
     ad0:	e7ef      	b.n	ab2 <system_clock_source_get_hz+0x16>
     ad2:	4d0e      	ldr	r5, [pc, #56]	; (b0c <system_clock_source_get_hz+0x70>)
     ad4:	2400      	movs	r4, #0
     ad6:	682b      	ldr	r3, [r5, #0]
     ad8:	079b      	lsls	r3, r3, #30
     ada:	d5ea      	bpl.n	ab2 <system_clock_source_get_hz+0x16>
     adc:	4b0e      	ldr	r3, [pc, #56]	; (b18 <system_clock_source_get_hz+0x7c>)
     ade:	4798      	blx	r3
     ae0:	682b      	ldr	r3, [r5, #0]
     ae2:	075b      	lsls	r3, r3, #29
     ae4:	d510      	bpl.n	b08 <system_clock_source_get_hz+0x6c>
     ae6:	0020      	movs	r0, r4
     ae8:	4b0c      	ldr	r3, [pc, #48]	; (b1c <system_clock_source_get_hz+0x80>)
     aea:	4798      	blx	r3
     aec:	68ac      	ldr	r4, [r5, #8]
     aee:	b2a4      	uxth	r4, r4
     af0:	e7ea      	b.n	ac8 <system_clock_source_get_hz+0x2c>
     af2:	4b0b      	ldr	r3, [pc, #44]	; (b20 <system_clock_source_get_hz+0x84>)
     af4:	2400      	movs	r4, #0
     af6:	781b      	ldrb	r3, [r3, #0]
     af8:	079b      	lsls	r3, r3, #30
     afa:	d5da      	bpl.n	ab2 <system_clock_source_get_hz+0x16>
     afc:	4b03      	ldr	r3, [pc, #12]	; (b0c <system_clock_source_get_hz+0x70>)
     afe:	68dc      	ldr	r4, [r3, #12]
     b00:	e7d7      	b.n	ab2 <system_clock_source_get_hz+0x16>
     b02:	2480      	movs	r4, #128	; 0x80
     b04:	0224      	lsls	r4, r4, #8
     b06:	e7d4      	b.n	ab2 <system_clock_source_get_hz+0x16>
     b08:	4c06      	ldr	r4, [pc, #24]	; (b24 <system_clock_source_get_hz+0x88>)
     b0a:	e7d2      	b.n	ab2 <system_clock_source_get_hz+0x16>
     b0c:	2000005c 	.word	0x2000005c
     b10:	40000c00 	.word	0x40000c00
     b14:	003d0900 	.word	0x003d0900
     b18:	00000a61 	.word	0x00000a61
     b1c:	00000dc9 	.word	0x00000dc9
     b20:	40000c28 	.word	0x40000c28
     b24:	02dc6c00 	.word	0x02dc6c00

00000b28 <system_clock_init>:
     b28:	b57f      	push	{r0, r1, r2, r3, r4, r5, r6, lr}
     b2a:	2380      	movs	r3, #128	; 0x80
     b2c:	2203      	movs	r2, #3
     b2e:	211e      	movs	r1, #30
     b30:	4c1b      	ldr	r4, [pc, #108]	; (ba0 <system_clock_init+0x78>)
     b32:	005b      	lsls	r3, r3, #1
     b34:	60a3      	str	r3, [r4, #8]
     b36:	4b1b      	ldr	r3, [pc, #108]	; (ba4 <system_clock_init+0x7c>)
     b38:	2002      	movs	r0, #2
     b3a:	609a      	str	r2, [r3, #8]
     b3c:	4a1a      	ldr	r2, [pc, #104]	; (ba8 <system_clock_init+0x80>)
     b3e:	4d1b      	ldr	r5, [pc, #108]	; (bac <system_clock_init+0x84>)
     b40:	6853      	ldr	r3, [r2, #4]
     b42:	4e1b      	ldr	r6, [pc, #108]	; (bb0 <system_clock_init+0x88>)
     b44:	438b      	bics	r3, r1
     b46:	6053      	str	r3, [r2, #4]
     b48:	47a8      	blx	r5
     b4a:	2380      	movs	r3, #128	; 0x80
     b4c:	7d22      	ldrb	r2, [r4, #20]
     b4e:	425b      	negs	r3, r3
     b50:	4313      	orrs	r3, r2
     b52:	2240      	movs	r2, #64	; 0x40
     b54:	7523      	strb	r3, [r4, #20]
     b56:	7d23      	ldrb	r3, [r4, #20]
     b58:	4393      	bics	r3, r2
     b5a:	7523      	strb	r3, [r4, #20]
     b5c:	4b15      	ldr	r3, [pc, #84]	; (bb4 <system_clock_init+0x8c>)
     b5e:	4798      	blx	r3
     b60:	2301      	movs	r3, #1
     b62:	2400      	movs	r4, #0
     b64:	a901      	add	r1, sp, #4
     b66:	71b3      	strb	r3, [r6, #6]
     b68:	7173      	strb	r3, [r6, #5]
     b6a:	7133      	strb	r3, [r6, #4]
     b6c:	604b      	str	r3, [r1, #4]
     b6e:	3305      	adds	r3, #5
     b70:	700b      	strb	r3, [r1, #0]
     b72:	0020      	movs	r0, r4
     b74:	4b10      	ldr	r3, [pc, #64]	; (bb8 <system_clock_init+0x90>)
     b76:	704c      	strb	r4, [r1, #1]
     b78:	720c      	strb	r4, [r1, #8]
     b7a:	724c      	strb	r4, [r1, #9]
     b7c:	4798      	blx	r3
     b7e:	0020      	movs	r0, r4
     b80:	4b0e      	ldr	r3, [pc, #56]	; (bbc <system_clock_init+0x94>)
     b82:	4798      	blx	r3
     b84:	4b0e      	ldr	r3, [pc, #56]	; (bc0 <system_clock_init+0x98>)
     b86:	0020      	movs	r0, r4
     b88:	4798      	blx	r3
     b8a:	7931      	ldrb	r1, [r6, #4]
     b8c:	4b0d      	ldr	r3, [pc, #52]	; (bc4 <system_clock_init+0x9c>)
     b8e:	b2c9      	uxtb	r1, r1
     b90:	4798      	blx	r3
     b92:	4b0d      	ldr	r3, [pc, #52]	; (bc8 <system_clock_init+0xa0>)
     b94:	4298      	cmp	r0, r3
     b96:	d801      	bhi.n	b9c <system_clock_init+0x74>
     b98:	0020      	movs	r0, r4
     b9a:	47a8      	blx	r5
     b9c:	bd7f      	pop	{r0, r1, r2, r3, r4, r5, r6, pc}
     b9e:	46c0      	nop			; (mov r8, r8)
     ba0:	40000c00 	.word	0x40000c00
     ba4:	40001400 	.word	0x40001400
     ba8:	41004000 	.word	0x41004000
     bac:	00000a75 	.word	0x00000a75
     bb0:	40000400 	.word	0x40000400
     bb4:	00000bed 	.word	0x00000bed
     bb8:	00000c0d 	.word	0x00000c0d
     bbc:	00000ca5 	.word	0x00000ca5
     bc0:	00000cdd 	.word	0x00000cdd
     bc4:	000010e9 	.word	0x000010e9
     bc8:	00b71b00 	.word	0x00b71b00

00000bcc <system_gclk_is_syncing>:
     bcc:	2204      	movs	r2, #4
     bce:	4082      	lsls	r2, r0
     bd0:	4b04      	ldr	r3, [pc, #16]	; (be4 <system_gclk_is_syncing+0x18>)
     bd2:	4805      	ldr	r0, [pc, #20]	; (be8 <system_gclk_is_syncing+0x1c>)
     bd4:	685b      	ldr	r3, [r3, #4]
     bd6:	4018      	ands	r0, r3
     bd8:	4010      	ands	r0, r2
     bda:	1e43      	subs	r3, r0, #1
     bdc:	4198      	sbcs	r0, r3
     bde:	b2c0      	uxtb	r0, r0
     be0:	4770      	bx	lr
     be2:	46c0      	nop			; (mov r8, r8)
     be4:	40001800 	.word	0x40001800
     be8:	000007fc 	.word	0x000007fc

00000bec <system_gclk_init>:
     bec:	2340      	movs	r3, #64	; 0x40
     bee:	4a05      	ldr	r2, [pc, #20]	; (c04 <system_gclk_init+0x18>)
     bf0:	6951      	ldr	r1, [r2, #20]
     bf2:	430b      	orrs	r3, r1
     bf4:	6153      	str	r3, [r2, #20]
     bf6:	2301      	movs	r3, #1
     bf8:	4a03      	ldr	r2, [pc, #12]	; (c08 <system_gclk_init+0x1c>)
     bfa:	7013      	strb	r3, [r2, #0]
     bfc:	7811      	ldrb	r1, [r2, #0]
     bfe:	4219      	tst	r1, r3
     c00:	d1fc      	bne.n	bfc <system_gclk_init+0x10>
     c02:	4770      	bx	lr
     c04:	40000400 	.word	0x40000400
     c08:	40001800 	.word	0x40001800

00000c0c <system_gclk_gen_set_config>:
     c0c:	b570      	push	{r4, r5, r6, lr}
     c0e:	784b      	ldrb	r3, [r1, #1]
     c10:	0005      	movs	r5, r0
     c12:	780c      	ldrb	r4, [r1, #0]
     c14:	2b00      	cmp	r3, #0
     c16:	d002      	beq.n	c1e <system_gclk_gen_set_config+0x12>
     c18:	2380      	movs	r3, #128	; 0x80
     c1a:	00db      	lsls	r3, r3, #3
     c1c:	431c      	orrs	r4, r3
     c1e:	7a4b      	ldrb	r3, [r1, #9]
     c20:	2b00      	cmp	r3, #0
     c22:	d002      	beq.n	c2a <system_gclk_gen_set_config+0x1e>
     c24:	2380      	movs	r3, #128	; 0x80
     c26:	011b      	lsls	r3, r3, #4
     c28:	431c      	orrs	r4, r3
     c2a:	684a      	ldr	r2, [r1, #4]
     c2c:	2a01      	cmp	r2, #1
     c2e:	d913      	bls.n	c58 <system_gclk_gen_set_config+0x4c>
     c30:	1e53      	subs	r3, r2, #1
     c32:	4013      	ands	r3, r2
     c34:	2002      	movs	r0, #2
     c36:	2b00      	cmp	r3, #0
     c38:	d007      	beq.n	c4a <system_gclk_gen_set_config+0x3e>
     c3a:	2380      	movs	r3, #128	; 0x80
     c3c:	0412      	lsls	r2, r2, #16
     c3e:	009b      	lsls	r3, r3, #2
     c40:	431a      	orrs	r2, r3
     c42:	4314      	orrs	r4, r2
     c44:	e008      	b.n	c58 <system_gclk_gen_set_config+0x4c>
     c46:	3301      	adds	r3, #1
     c48:	0040      	lsls	r0, r0, #1
     c4a:	4290      	cmp	r0, r2
     c4c:	d3fb      	bcc.n	c46 <system_gclk_gen_set_config+0x3a>
     c4e:	2280      	movs	r2, #128	; 0x80
     c50:	0152      	lsls	r2, r2, #5
     c52:	4314      	orrs	r4, r2
     c54:	041b      	lsls	r3, r3, #16
     c56:	431c      	orrs	r4, r3
     c58:	7a0b      	ldrb	r3, [r1, #8]
     c5a:	2b00      	cmp	r3, #0
     c5c:	d002      	beq.n	c64 <system_gclk_gen_set_config+0x58>
     c5e:	2380      	movs	r3, #128	; 0x80
     c60:	019b      	lsls	r3, r3, #6
     c62:	431c      	orrs	r4, r3
     c64:	0028      	movs	r0, r5
     c66:	4e0b      	ldr	r6, [pc, #44]	; (c94 <system_gclk_gen_set_config+0x88>)
     c68:	47b0      	blx	r6
     c6a:	2800      	cmp	r0, #0
     c6c:	d1fa      	bne.n	c64 <system_gclk_gen_set_config+0x58>
     c6e:	4b0a      	ldr	r3, [pc, #40]	; (c98 <system_gclk_gen_set_config+0x8c>)
     c70:	4798      	blx	r3
     c72:	2180      	movs	r1, #128	; 0x80
     c74:	4b09      	ldr	r3, [pc, #36]	; (c9c <system_gclk_gen_set_config+0x90>)
     c76:	00aa      	lsls	r2, r5, #2
     c78:	18d2      	adds	r2, r2, r3
     c7a:	6a13      	ldr	r3, [r2, #32]
     c7c:	0049      	lsls	r1, r1, #1
     c7e:	400b      	ands	r3, r1
     c80:	431c      	orrs	r4, r3
     c82:	6214      	str	r4, [r2, #32]
     c84:	0028      	movs	r0, r5
     c86:	47b0      	blx	r6
     c88:	2800      	cmp	r0, #0
     c8a:	d1fb      	bne.n	c84 <system_gclk_gen_set_config+0x78>
     c8c:	4b04      	ldr	r3, [pc, #16]	; (ca0 <system_gclk_gen_set_config+0x94>)
     c8e:	4798      	blx	r3
     c90:	bd70      	pop	{r4, r5, r6, pc}
     c92:	46c0      	nop			; (mov r8, r8)
     c94:	00000bcd 	.word	0x00000bcd
     c98:	00000185 	.word	0x00000185
     c9c:	40001800 	.word	0x40001800
     ca0:	000001b9 	.word	0x000001b9

00000ca4 <system_gclk_gen_enable>:
     ca4:	b510      	push	{r4, lr}
     ca6:	0004      	movs	r4, r0
     ca8:	0020      	movs	r0, r4
     caa:	4b08      	ldr	r3, [pc, #32]	; (ccc <system_gclk_gen_enable+0x28>)
     cac:	4798      	blx	r3
     cae:	2800      	cmp	r0, #0
     cb0:	d1fa      	bne.n	ca8 <system_gclk_gen_enable+0x4>
     cb2:	4b07      	ldr	r3, [pc, #28]	; (cd0 <system_gclk_gen_enable+0x2c>)
     cb4:	4798      	blx	r3
     cb6:	4b07      	ldr	r3, [pc, #28]	; (cd4 <system_gclk_gen_enable+0x30>)
     cb8:	00a4      	lsls	r4, r4, #2
     cba:	18e4      	adds	r4, r4, r3
     cbc:	2380      	movs	r3, #128	; 0x80
     cbe:	6a22      	ldr	r2, [r4, #32]
     cc0:	005b      	lsls	r3, r3, #1
     cc2:	4313      	orrs	r3, r2
     cc4:	6223      	str	r3, [r4, #32]
     cc6:	4b04      	ldr	r3, [pc, #16]	; (cd8 <system_gclk_gen_enable+0x34>)
     cc8:	4798      	blx	r3
     cca:	bd10      	pop	{r4, pc}
     ccc:	00000bcd 	.word	0x00000bcd
     cd0:	00000185 	.word	0x00000185
     cd4:	40001800 	.word	0x40001800
     cd8:	000001b9 	.word	0x000001b9

00000cdc <system_gclk_gen_get_hz>:
     cdc:	b5f8      	push	{r3, r4, r5, r6, r7, lr}
     cde:	0004      	movs	r4, r0
     ce0:	0020      	movs	r0, r4
     ce2:	4b12      	ldr	r3, [pc, #72]	; (d2c <system_gclk_gen_get_hz+0x50>)
     ce4:	4798      	blx	r3
     ce6:	2800      	cmp	r0, #0
     ce8:	d1fa      	bne.n	ce0 <system_gclk_gen_get_hz+0x4>
     cea:	4f11      	ldr	r7, [pc, #68]	; (d30 <system_gclk_gen_get_hz+0x54>)
     cec:	3408      	adds	r4, #8
     cee:	00a4      	lsls	r4, r4, #2
     cf0:	4b10      	ldr	r3, [pc, #64]	; (d34 <system_gclk_gen_get_hz+0x58>)
     cf2:	4798      	blx	r3
     cf4:	59e0      	ldr	r0, [r4, r7]
     cf6:	4b10      	ldr	r3, [pc, #64]	; (d38 <system_gclk_gen_get_hz+0x5c>)
     cf8:	0700      	lsls	r0, r0, #28
     cfa:	0f00      	lsrs	r0, r0, #28
     cfc:	4798      	blx	r3
     cfe:	59e6      	ldr	r6, [r4, r7]
     d00:	59e4      	ldr	r4, [r4, r7]
     d02:	04f6      	lsls	r6, r6, #19
     d04:	4b0d      	ldr	r3, [pc, #52]	; (d3c <system_gclk_gen_get_hz+0x60>)
     d06:	0ff6      	lsrs	r6, r6, #31
     d08:	0005      	movs	r5, r0
     d0a:	0c24      	lsrs	r4, r4, #16
     d0c:	4798      	blx	r3
     d0e:	2e00      	cmp	r6, #0
     d10:	d108      	bne.n	d24 <system_gclk_gen_get_hz+0x48>
     d12:	2c01      	cmp	r4, #1
     d14:	d904      	bls.n	d20 <system_gclk_gen_get_hz+0x44>
     d16:	0028      	movs	r0, r5
     d18:	0021      	movs	r1, r4
     d1a:	4b09      	ldr	r3, [pc, #36]	; (d40 <system_gclk_gen_get_hz+0x64>)
     d1c:	4798      	blx	r3
     d1e:	0005      	movs	r5, r0
     d20:	0028      	movs	r0, r5
     d22:	bdf8      	pop	{r3, r4, r5, r6, r7, pc}
     d24:	3401      	adds	r4, #1
     d26:	40e5      	lsrs	r5, r4
     d28:	e7fa      	b.n	d20 <system_gclk_gen_get_hz+0x44>
     d2a:	46c0      	nop			; (mov r8, r8)
     d2c:	00000bcd 	.word	0x00000bcd
     d30:	40001800 	.word	0x40001800
     d34:	00000185 	.word	0x00000185
     d38:	00000a9d 	.word	0x00000a9d
     d3c:	000001b9 	.word	0x000001b9
     d40:	000010e9 	.word	0x000010e9

00000d44 <system_gclk_chan_enable>:
     d44:	b510      	push	{r4, lr}
     d46:	0004      	movs	r4, r0
     d48:	4b07      	ldr	r3, [pc, #28]	; (d68 <system_gclk_chan_enable+0x24>)
     d4a:	4798      	blx	r3
     d4c:	4b07      	ldr	r3, [pc, #28]	; (d6c <system_gclk_chan_enable+0x28>)
     d4e:	00a0      	lsls	r0, r4, #2
     d50:	18c1      	adds	r1, r0, r3
     d52:	2340      	movs	r3, #64	; 0x40
     d54:	0008      	movs	r0, r1
     d56:	6fca      	ldr	r2, [r1, #124]	; 0x7c
     d58:	431a      	orrs	r2, r3
     d5a:	67ca      	str	r2, [r1, #124]	; 0x7c
     d5c:	6fc2      	ldr	r2, [r0, #124]	; 0x7c
     d5e:	421a      	tst	r2, r3
     d60:	d0fc      	beq.n	d5c <system_gclk_chan_enable+0x18>
     d62:	4b03      	ldr	r3, [pc, #12]	; (d70 <system_gclk_chan_enable+0x2c>)
     d64:	4798      	blx	r3
     d66:	bd10      	pop	{r4, pc}
     d68:	00000185 	.word	0x00000185
     d6c:	40001804 	.word	0x40001804
     d70:	000001b9 	.word	0x000001b9

00000d74 <system_gclk_chan_disable>:
     d74:	b510      	push	{r4, lr}
     d76:	0004      	movs	r4, r0
     d78:	4b07      	ldr	r3, [pc, #28]	; (d98 <system_gclk_chan_disable+0x24>)
     d7a:	4798      	blx	r3
     d7c:	4b07      	ldr	r3, [pc, #28]	; (d9c <system_gclk_chan_disable+0x28>)
     d7e:	00a0      	lsls	r0, r4, #2
     d80:	18c1      	adds	r1, r0, r3
     d82:	2340      	movs	r3, #64	; 0x40
     d84:	0008      	movs	r0, r1
     d86:	6fca      	ldr	r2, [r1, #124]	; 0x7c
     d88:	439a      	bics	r2, r3
     d8a:	67ca      	str	r2, [r1, #124]	; 0x7c
     d8c:	6fc2      	ldr	r2, [r0, #124]	; 0x7c
     d8e:	421a      	tst	r2, r3
     d90:	d1fc      	bne.n	d8c <system_gclk_chan_disable+0x18>
     d92:	4b03      	ldr	r3, [pc, #12]	; (da0 <system_gclk_chan_disable+0x2c>)
     d94:	4798      	blx	r3
     d96:	bd10      	pop	{r4, pc}
     d98:	00000185 	.word	0x00000185
     d9c:	40001804 	.word	0x40001804
     da0:	000001b9 	.word	0x000001b9

00000da4 <system_gclk_chan_set_config>:
     da4:	b570      	push	{r4, r5, r6, lr}
     da6:	000d      	movs	r5, r1
     da8:	4b05      	ldr	r3, [pc, #20]	; (dc0 <system_gclk_chan_set_config+0x1c>)
     daa:	0004      	movs	r4, r0
     dac:	4798      	blx	r3
     dae:	220f      	movs	r2, #15
     db0:	782b      	ldrb	r3, [r5, #0]
     db2:	3420      	adds	r4, #32
     db4:	4013      	ands	r3, r2
     db6:	4a03      	ldr	r2, [pc, #12]	; (dc4 <system_gclk_chan_set_config+0x20>)
     db8:	00a4      	lsls	r4, r4, #2
     dba:	50a3      	str	r3, [r4, r2]
     dbc:	bd70      	pop	{r4, r5, r6, pc}
     dbe:	46c0      	nop			; (mov r8, r8)
     dc0:	00000d75 	.word	0x00000d75
     dc4:	40001800 	.word	0x40001800

00000dc8 <system_gclk_chan_get_hz>:
     dc8:	b510      	push	{r4, lr}
     dca:	0004      	movs	r4, r0
     dcc:	4b06      	ldr	r3, [pc, #24]	; (de8 <system_gclk_chan_get_hz+0x20>)
     dce:	4798      	blx	r3
     dd0:	3420      	adds	r4, #32
     dd2:	4b06      	ldr	r3, [pc, #24]	; (dec <system_gclk_chan_get_hz+0x24>)
     dd4:	00a4      	lsls	r4, r4, #2
     dd6:	58e4      	ldr	r4, [r4, r3]
     dd8:	4b05      	ldr	r3, [pc, #20]	; (df0 <system_gclk_chan_get_hz+0x28>)
     dda:	0724      	lsls	r4, r4, #28
     ddc:	0f24      	lsrs	r4, r4, #28
     dde:	4798      	blx	r3
     de0:	0020      	movs	r0, r4
     de2:	4b04      	ldr	r3, [pc, #16]	; (df4 <system_gclk_chan_get_hz+0x2c>)
     de4:	4798      	blx	r3
     de6:	bd10      	pop	{r4, pc}
     de8:	00000185 	.word	0x00000185
     dec:	40001800 	.word	0x40001800
     df0:	000001b9 	.word	0x000001b9
     df4:	00000cdd 	.word	0x00000cdd

00000df8 <_system_pinmux_config>:
     df8:	78d3      	ldrb	r3, [r2, #3]
     dfa:	b530      	push	{r4, r5, lr}
     dfc:	2b00      	cmp	r3, #0
     dfe:	d135      	bne.n	e6c <_system_pinmux_config+0x74>
     e00:	7814      	ldrb	r4, [r2, #0]
     e02:	2c80      	cmp	r4, #128	; 0x80
     e04:	d003      	beq.n	e0e <_system_pinmux_config+0x16>
     e06:	2380      	movs	r3, #128	; 0x80
     e08:	0624      	lsls	r4, r4, #24
     e0a:	025b      	lsls	r3, r3, #9
     e0c:	4323      	orrs	r3, r4
     e0e:	2502      	movs	r5, #2
     e10:	7854      	ldrb	r4, [r2, #1]
     e12:	43ac      	bics	r4, r5
     e14:	d106      	bne.n	e24 <_system_pinmux_config+0x2c>
     e16:	7894      	ldrb	r4, [r2, #2]
     e18:	2c00      	cmp	r4, #0
     e1a:	d124      	bne.n	e66 <_system_pinmux_config+0x6e>
     e1c:	2480      	movs	r4, #128	; 0x80
     e1e:	02a4      	lsls	r4, r4, #10
     e20:	4323      	orrs	r3, r4
     e22:	6041      	str	r1, [r0, #4]
     e24:	7854      	ldrb	r4, [r2, #1]
     e26:	3c01      	subs	r4, #1
     e28:	2c01      	cmp	r4, #1
     e2a:	d801      	bhi.n	e30 <_system_pinmux_config+0x38>
     e2c:	4c12      	ldr	r4, [pc, #72]	; (e78 <_system_pinmux_config+0x80>)
     e2e:	4023      	ands	r3, r4
     e30:	24a0      	movs	r4, #160	; 0xa0
     e32:	b28d      	uxth	r5, r1
     e34:	05e4      	lsls	r4, r4, #23
     e36:	432c      	orrs	r4, r5
     e38:	431c      	orrs	r4, r3
     e3a:	6284      	str	r4, [r0, #40]	; 0x28
     e3c:	24d0      	movs	r4, #208	; 0xd0
     e3e:	0c0d      	lsrs	r5, r1, #16
     e40:	0624      	lsls	r4, r4, #24
     e42:	432c      	orrs	r4, r5
     e44:	431c      	orrs	r4, r3
     e46:	6284      	str	r4, [r0, #40]	; 0x28
     e48:	78d4      	ldrb	r4, [r2, #3]
     e4a:	2c00      	cmp	r4, #0
     e4c:	d10a      	bne.n	e64 <_system_pinmux_config+0x6c>
     e4e:	035b      	lsls	r3, r3, #13
     e50:	d503      	bpl.n	e5a <_system_pinmux_config+0x62>
     e52:	7893      	ldrb	r3, [r2, #2]
     e54:	2b01      	cmp	r3, #1
     e56:	d10c      	bne.n	e72 <_system_pinmux_config+0x7a>
     e58:	6181      	str	r1, [r0, #24]
     e5a:	7853      	ldrb	r3, [r2, #1]
     e5c:	3b01      	subs	r3, #1
     e5e:	2b01      	cmp	r3, #1
     e60:	d800      	bhi.n	e64 <_system_pinmux_config+0x6c>
     e62:	6081      	str	r1, [r0, #8]
     e64:	bd30      	pop	{r4, r5, pc}
     e66:	24c0      	movs	r4, #192	; 0xc0
     e68:	02e4      	lsls	r4, r4, #11
     e6a:	e7d9      	b.n	e20 <_system_pinmux_config+0x28>
     e6c:	6041      	str	r1, [r0, #4]
     e6e:	2300      	movs	r3, #0
     e70:	e7de      	b.n	e30 <_system_pinmux_config+0x38>
     e72:	6141      	str	r1, [r0, #20]
     e74:	e7f1      	b.n	e5a <_system_pinmux_config+0x62>
     e76:	46c0      	nop			; (mov r8, r8)
     e78:	fffbffff 	.word	0xfffbffff

00000e7c <system_pinmux_pin_set_config>:
     e7c:	b510      	push	{r4, lr}
     e7e:	0003      	movs	r3, r0
     e80:	000a      	movs	r2, r1
     e82:	0944      	lsrs	r4, r0, #5
     e84:	09c1      	lsrs	r1, r0, #7
     e86:	2000      	movs	r0, #0
     e88:	4281      	cmp	r1, r0
     e8a:	d102      	bne.n	e92 <system_pinmux_pin_set_config+0x16>
     e8c:	4904      	ldr	r1, [pc, #16]	; (ea0 <system_pinmux_pin_set_config+0x24>)
     e8e:	01e0      	lsls	r0, r4, #7
     e90:	1840      	adds	r0, r0, r1
     e92:	211f      	movs	r1, #31
     e94:	400b      	ands	r3, r1
     e96:	391e      	subs	r1, #30
     e98:	4099      	lsls	r1, r3
     e9a:	4b02      	ldr	r3, [pc, #8]	; (ea4 <system_pinmux_pin_set_config+0x28>)
     e9c:	4798      	blx	r3
     e9e:	bd10      	pop	{r4, pc}
     ea0:	40002800 	.word	0x40002800
     ea4:	00000df9 	.word	0x00000df9

00000ea8 <_system_dummy_init>:
     ea8:	4770      	bx	lr
	...

00000eac <system_init>:
     eac:	b510      	push	{r4, lr}
     eae:	4b05      	ldr	r3, [pc, #20]	; (ec4 <system_init+0x18>)
     eb0:	4798      	blx	r3
     eb2:	4b05      	ldr	r3, [pc, #20]	; (ec8 <system_init+0x1c>)
     eb4:	4798      	blx	r3
     eb6:	4b05      	ldr	r3, [pc, #20]	; (ecc <system_init+0x20>)
     eb8:	4798      	blx	r3
     eba:	4b05      	ldr	r3, [pc, #20]	; (ed0 <system_init+0x24>)
     ebc:	4798      	blx	r3
     ebe:	4b05      	ldr	r3, [pc, #20]	; (ed4 <system_init+0x28>)
     ec0:	4798      	blx	r3
     ec2:	bd10      	pop	{r4, pc}
     ec4:	00000b29 	.word	0x00000b29
     ec8:	00000181 	.word	0x00000181
     ecc:	00000ea9 	.word	0x00000ea9
     ed0:	00000ea9 	.word	0x00000ea9
     ed4:	00000ea9 	.word	0x00000ea9

00000ed8 <Dummy_Handler>:
     ed8:	e7fe      	b.n	ed8 <Dummy_Handler>
	...

00000edc <Reset_Handler>:
     edc:	4811      	ldr	r0, [pc, #68]	; (f24 <Reset_Handler+0x48>)
     ede:	4912      	ldr	r1, [pc, #72]	; (f28 <Reset_Handler+0x4c>)
     ee0:	b570      	push	{r4, r5, r6, lr}
     ee2:	4288      	cmp	r0, r1
     ee4:	d004      	beq.n	ef0 <Reset_Handler+0x14>
     ee6:	2300      	movs	r3, #0
     ee8:	4c10      	ldr	r4, [pc, #64]	; (f2c <Reset_Handler+0x50>)
     eea:	18ca      	adds	r2, r1, r3
     eec:	42a2      	cmp	r2, r4
     eee:	d313      	bcc.n	f18 <Reset_Handler+0x3c>
     ef0:	2100      	movs	r1, #0
     ef2:	4b0f      	ldr	r3, [pc, #60]	; (f30 <Reset_Handler+0x54>)
     ef4:	4a0f      	ldr	r2, [pc, #60]	; (f34 <Reset_Handler+0x58>)
     ef6:	4293      	cmp	r3, r2
     ef8:	d312      	bcc.n	f20 <Reset_Handler+0x44>
     efa:	21ff      	movs	r1, #255	; 0xff
     efc:	4b0e      	ldr	r3, [pc, #56]	; (f38 <Reset_Handler+0x5c>)
     efe:	4a0f      	ldr	r2, [pc, #60]	; (f3c <Reset_Handler+0x60>)
     f00:	438b      	bics	r3, r1
     f02:	6093      	str	r3, [r2, #8]
     f04:	2380      	movs	r3, #128	; 0x80
     f06:	4a0e      	ldr	r2, [pc, #56]	; (f40 <Reset_Handler+0x64>)
     f08:	6851      	ldr	r1, [r2, #4]
     f0a:	430b      	orrs	r3, r1
     f0c:	6053      	str	r3, [r2, #4]
     f0e:	4b0d      	ldr	r3, [pc, #52]	; (f44 <Reset_Handler+0x68>)
     f10:	4798      	blx	r3
     f12:	4b0d      	ldr	r3, [pc, #52]	; (f48 <Reset_Handler+0x6c>)
     f14:	4798      	blx	r3
     f16:	e7fe      	b.n	f16 <Reset_Handler+0x3a>
     f18:	58c5      	ldr	r5, [r0, r3]
     f1a:	3304      	adds	r3, #4
     f1c:	6015      	str	r5, [r2, #0]
     f1e:	e7e4      	b.n	eea <Reset_Handler+0xe>
     f20:	c302      	stmia	r3!, {r1}
     f22:	e7e8      	b.n	ef6 <Reset_Handler+0x1a>
     f24:	00001290 	.word	0x00001290
     f28:	20000000 	.word	0x20000000
     f2c:	20000020 	.word	0x20000020
     f30:	20000020 	.word	0x20000020
     f34:	200000e8 	.word	0x200000e8
     f38:	00000000 	.word	0x00000000
     f3c:	e000ed00 	.word	0xe000ed00
     f40:	41004000 	.word	0x41004000
     f44:	00001201 	.word	0x00001201
     f48:	00001059 	.word	0x00001059

00000f4c <callback_spi_master>:
     f4c:	2201      	movs	r2, #1
     f4e:	4b01      	ldr	r3, [pc, #4]	; (f54 <callback_spi_master+0x8>)
     f50:	701a      	strb	r2, [r3, #0]
     f52:	4770      	bx	lr
     f54:	20000088 	.word	0x20000088

00000f58 <configure_spi_master>:
     f58:	b5f0      	push	{r4, r5, r6, r7, lr}
     f5a:	b08f      	sub	sp, #60	; 0x3c
     f5c:	466b      	mov	r3, sp
     f5e:	2500      	movs	r5, #0
     f60:	2401      	movs	r4, #1
     f62:	2016      	movs	r0, #22
     f64:	4e26      	ldr	r6, [pc, #152]	; (1000 <STACK_SIZE>)
     f66:	705c      	strb	r4, [r3, #1]
     f68:	709d      	strb	r5, [r3, #2]
     f6a:	701c      	strb	r4, [r3, #0]
     f6c:	4669      	mov	r1, sp
     f6e:	4b25      	ldr	r3, [pc, #148]	; (1004 <STACK_SIZE+0x4>)
     f70:	7030      	strb	r0, [r6, #0]
     f72:	7075      	strb	r5, [r6, #1]
     f74:	70b5      	strb	r5, [r6, #2]
     f76:	4798      	blx	r3
     f78:	7832      	ldrb	r2, [r6, #0]
     f7a:	0953      	lsrs	r3, r2, #5
     f7c:	09d1      	lsrs	r1, r2, #7
     f7e:	42a9      	cmp	r1, r5
     f80:	d13c      	bne.n	ffc <configure_spi_master+0xa4>
     f82:	271f      	movs	r7, #31
     f84:	0020      	movs	r0, r4
     f86:	403a      	ands	r2, r7
     f88:	4090      	lsls	r0, r2
     f8a:	0002      	movs	r2, r0
     f8c:	481e      	ldr	r0, [pc, #120]	; (1008 <STACK_SIZE+0x8>)
     f8e:	01db      	lsls	r3, r3, #7
     f90:	181b      	adds	r3, r3, r0
     f92:	619a      	str	r2, [r3, #24]
     f94:	466b      	mov	r3, sp
     f96:	7419      	strb	r1, [r3, #16]
     f98:	7459      	strb	r1, [r3, #17]
     f9a:	749c      	strb	r4, [r3, #18]
     f9c:	74dc      	strb	r4, [r3, #19]
     f9e:	7519      	strb	r1, [r3, #20]
     fa0:	701c      	strb	r4, [r3, #0]
     fa2:	3305      	adds	r3, #5
     fa4:	77d9      	strb	r1, [r3, #31]
     fa6:	220c      	movs	r2, #12
     fa8:	4b18      	ldr	r3, [pc, #96]	; (100c <STACK_SIZE+0xc>)
     faa:	a806      	add	r0, sp, #24
     fac:	9101      	str	r1, [sp, #4]
     fae:	9102      	str	r1, [sp, #8]
     fb0:	4798      	blx	r3
     fb2:	4b17      	ldr	r3, [pc, #92]	; (1010 <STACK_SIZE+0x10>)
     fb4:	4e17      	ldr	r6, [pc, #92]	; (1014 <STACK_SIZE+0x14>)
     fb6:	9306      	str	r3, [sp, #24]
     fb8:	2384      	movs	r3, #132	; 0x84
     fba:	039b      	lsls	r3, r3, #14
     fbc:	9303      	str	r3, [sp, #12]
     fbe:	2301      	movs	r3, #1
     fc0:	425b      	negs	r3, r3
     fc2:	930a      	str	r3, [sp, #40]	; 0x28
     fc4:	930b      	str	r3, [sp, #44]	; 0x2c
     fc6:	4b14      	ldr	r3, [pc, #80]	; (1018 <STACK_SIZE+0x18>)
     fc8:	466a      	mov	r2, sp
     fca:	930c      	str	r3, [sp, #48]	; 0x30
     fcc:	4b13      	ldr	r3, [pc, #76]	; (101c <STACK_SIZE+0x1c>)
     fce:	4914      	ldr	r1, [pc, #80]	; (1020 <STACK_SIZE+0x20>)
     fd0:	930d      	str	r3, [sp, #52]	; 0x34
     fd2:	0030      	movs	r0, r6
     fd4:	4b13      	ldr	r3, [pc, #76]	; (1024 <STACK_SIZE+0x24>)
     fd6:	4798      	blx	r3
     fd8:	6835      	ldr	r5, [r6, #0]
     fda:	4b13      	ldr	r3, [pc, #76]	; (1028 <STACK_SIZE+0x28>)
     fdc:	0028      	movs	r0, r5
     fde:	4798      	blx	r3
     fe0:	4007      	ands	r7, r0
     fe2:	40bc      	lsls	r4, r7
     fe4:	4b11      	ldr	r3, [pc, #68]	; (102c <STACK_SIZE+0x2c>)
     fe6:	601c      	str	r4, [r3, #0]
     fe8:	6832      	ldr	r2, [r6, #0]
     fea:	69d3      	ldr	r3, [r2, #28]
     fec:	2b00      	cmp	r3, #0
     fee:	d1fc      	bne.n	fea <configure_spi_master+0x92>
     ff0:	682a      	ldr	r2, [r5, #0]
     ff2:	3302      	adds	r3, #2
     ff4:	4313      	orrs	r3, r2
     ff6:	602b      	str	r3, [r5, #0]
     ff8:	b00f      	add	sp, #60	; 0x3c
     ffa:	bdf0      	pop	{r4, r5, r6, r7, pc}
     ffc:	61ad      	str	r5, [r5, #24]
     ffe:	deff      	udf	#255	; 0xff
    1000:	200000e4 	.word	0x200000e4
    1004:	000001e9 	.word	0x000001e9
    1008:	40002800 	.word	0x40002800
    100c:	00001249 	.word	0x00001249
    1010:	000186a0 	.word	0x000186a0
    1014:	200000a8 	.word	0x200000a8
    1018:	00180002 	.word	0x00180002
    101c:	00190002 	.word	0x00190002
    1020:	42000c00 	.word	0x42000c00
    1024:	00000561 	.word	0x00000561
    1028:	00000439 	.word	0x00000439
    102c:	e000e100 	.word	0xe000e100

00001030 <configure_spi_master_callbacks>:
    1030:	b510      	push	{r4, lr}
    1032:	4c06      	ldr	r4, [pc, #24]	; (104c <configure_spi_master_callbacks+0x1c>)
    1034:	2202      	movs	r2, #2
    1036:	0020      	movs	r0, r4
    1038:	4905      	ldr	r1, [pc, #20]	; (1050 <configure_spi_master_callbacks+0x20>)
    103a:	4b06      	ldr	r3, [pc, #24]	; (1054 <configure_spi_master_callbacks+0x24>)
    103c:	4798      	blx	r3
    103e:	2304      	movs	r3, #4
    1040:	3437      	adds	r4, #55	; 0x37
    1042:	7822      	ldrb	r2, [r4, #0]
    1044:	4313      	orrs	r3, r2
    1046:	7023      	strb	r3, [r4, #0]
    1048:	bd10      	pop	{r4, pc}
    104a:	46c0      	nop			; (mov r8, r8)
    104c:	200000a8 	.word	0x200000a8
    1050:	00000f4d 	.word	0x00000f4d
    1054:	0000080d 	.word	0x0000080d

00001058 <main>:
    1058:	b5f8      	push	{r3, r4, r5, r6, r7, lr}
    105a:	4b12      	ldr	r3, [pc, #72]	; (10a4 <main+0x4c>)
    105c:	4798      	blx	r3
    105e:	4b12      	ldr	r3, [pc, #72]	; (10a8 <main+0x50>)
    1060:	4798      	blx	r3
    1062:	4b12      	ldr	r3, [pc, #72]	; (10ac <main+0x54>)
    1064:	4798      	blx	r3
    1066:	4b12      	ldr	r3, [pc, #72]	; (10b0 <main+0x58>)
    1068:	4798      	blx	r3
    106a:	2701      	movs	r7, #1
    106c:	4c11      	ldr	r4, [pc, #68]	; (10b4 <main+0x5c>)
    106e:	4e12      	ldr	r6, [pc, #72]	; (10b8 <main+0x60>)
    1070:	003a      	movs	r2, r7
    1072:	0031      	movs	r1, r6
    1074:	4b11      	ldr	r3, [pc, #68]	; (10bc <main+0x64>)
    1076:	0020      	movs	r0, r4
    1078:	4798      	blx	r3
    107a:	2314      	movs	r3, #20
    107c:	4a10      	ldr	r2, [pc, #64]	; (10c0 <main+0x68>)
    107e:	4911      	ldr	r1, [pc, #68]	; (10c4 <main+0x6c>)
    1080:	0020      	movs	r0, r4
    1082:	4d11      	ldr	r5, [pc, #68]	; (10c8 <main+0x70>)
    1084:	47a8      	blx	r5
    1086:	4b11      	ldr	r3, [pc, #68]	; (10cc <main+0x74>)
    1088:	781a      	ldrb	r2, [r3, #0]
    108a:	2a00      	cmp	r2, #0
    108c:	d0fc      	beq.n	1088 <main+0x30>
    108e:	2200      	movs	r2, #0
    1090:	0031      	movs	r1, r6
    1092:	701a      	strb	r2, [r3, #0]
    1094:	0020      	movs	r0, r4
    1096:	4b09      	ldr	r3, [pc, #36]	; (10bc <main+0x64>)
    1098:	4798      	blx	r3
    109a:	0038      	movs	r0, r7
    109c:	4b0c      	ldr	r3, [pc, #48]	; (10d0 <main+0x78>)
    109e:	4798      	blx	r3
    10a0:	e7e4      	b.n	106c <main+0x14>
    10a2:	46c0      	nop			; (mov r8, r8)
    10a4:	00000ead 	.word	0x00000ead
    10a8:	00000115 	.word	0x00000115
    10ac:	00000f59 	.word	0x00000f59
    10b0:	00001031 	.word	0x00001031
    10b4:	200000a8 	.word	0x200000a8
    10b8:	200000e4 	.word	0x200000e4
    10bc:	00000775 	.word	0x00000775
    10c0:	20000074 	.word	0x20000074
    10c4:	20000009 	.word	0x20000009
    10c8:	00000825 	.word	0x00000825
    10cc:	20000088 	.word	0x20000088
    10d0:	00000155 	.word	0x00000155

000010d4 <__gnu_thumb1_case_uqi>:
    10d4:	b402      	push	{r1}
    10d6:	4671      	mov	r1, lr
    10d8:	0849      	lsrs	r1, r1, #1
    10da:	0049      	lsls	r1, r1, #1
    10dc:	5c09      	ldrb	r1, [r1, r0]
    10de:	0049      	lsls	r1, r1, #1
    10e0:	448e      	add	lr, r1
    10e2:	bc02      	pop	{r1}
    10e4:	4770      	bx	lr
    10e6:	46c0      	nop			; (mov r8, r8)

000010e8 <__udivsi3>:
    10e8:	2200      	movs	r2, #0
    10ea:	0843      	lsrs	r3, r0, #1
    10ec:	428b      	cmp	r3, r1
    10ee:	d374      	bcc.n	11da <__udivsi3+0xf2>
    10f0:	0903      	lsrs	r3, r0, #4
    10f2:	428b      	cmp	r3, r1
    10f4:	d35f      	bcc.n	11b6 <__udivsi3+0xce>
    10f6:	0a03      	lsrs	r3, r0, #8
    10f8:	428b      	cmp	r3, r1
    10fa:	d344      	bcc.n	1186 <__udivsi3+0x9e>
    10fc:	0b03      	lsrs	r3, r0, #12
    10fe:	428b      	cmp	r3, r1
    1100:	d328      	bcc.n	1154 <__udivsi3+0x6c>
    1102:	0c03      	lsrs	r3, r0, #16
    1104:	428b      	cmp	r3, r1
    1106:	d30d      	bcc.n	1124 <__udivsi3+0x3c>
    1108:	22ff      	movs	r2, #255	; 0xff
    110a:	0209      	lsls	r1, r1, #8
    110c:	ba12      	rev	r2, r2
    110e:	0c03      	lsrs	r3, r0, #16
    1110:	428b      	cmp	r3, r1
    1112:	d302      	bcc.n	111a <__udivsi3+0x32>
    1114:	1212      	asrs	r2, r2, #8
    1116:	0209      	lsls	r1, r1, #8
    1118:	d065      	beq.n	11e6 <__udivsi3+0xfe>
    111a:	0b03      	lsrs	r3, r0, #12
    111c:	428b      	cmp	r3, r1
    111e:	d319      	bcc.n	1154 <__udivsi3+0x6c>
    1120:	e000      	b.n	1124 <__udivsi3+0x3c>
    1122:	0a09      	lsrs	r1, r1, #8
    1124:	0bc3      	lsrs	r3, r0, #15
    1126:	428b      	cmp	r3, r1
    1128:	d301      	bcc.n	112e <__udivsi3+0x46>
    112a:	03cb      	lsls	r3, r1, #15
    112c:	1ac0      	subs	r0, r0, r3
    112e:	4152      	adcs	r2, r2
    1130:	0b83      	lsrs	r3, r0, #14
    1132:	428b      	cmp	r3, r1
    1134:	d301      	bcc.n	113a <__udivsi3+0x52>
    1136:	038b      	lsls	r3, r1, #14
    1138:	1ac0      	subs	r0, r0, r3
    113a:	4152      	adcs	r2, r2
    113c:	0b43      	lsrs	r3, r0, #13
    113e:	428b      	cmp	r3, r1
    1140:	d301      	bcc.n	1146 <__udivsi3+0x5e>
    1142:	034b      	lsls	r3, r1, #13
    1144:	1ac0      	subs	r0, r0, r3
    1146:	4152      	adcs	r2, r2
    1148:	0b03      	lsrs	r3, r0, #12
    114a:	428b      	cmp	r3, r1
    114c:	d301      	bcc.n	1152 <__udivsi3+0x6a>
    114e:	030b      	lsls	r3, r1, #12
    1150:	1ac0      	subs	r0, r0, r3
    1152:	4152      	adcs	r2, r2
    1154:	0ac3      	lsrs	r3, r0, #11
    1156:	428b      	cmp	r3, r1
    1158:	d301      	bcc.n	115e <__udivsi3+0x76>
    115a:	02cb      	lsls	r3, r1, #11
    115c:	1ac0      	subs	r0, r0, r3
    115e:	4152      	adcs	r2, r2
    1160:	0a83      	lsrs	r3, r0, #10
    1162:	428b      	cmp	r3, r1
    1164:	d301      	bcc.n	116a <__udivsi3+0x82>
    1166:	028b      	lsls	r3, r1, #10
    1168:	1ac0      	subs	r0, r0, r3
    116a:	4152      	adcs	r2, r2
    116c:	0a43      	lsrs	r3, r0, #9
    116e:	428b      	cmp	r3, r1
    1170:	d301      	bcc.n	1176 <__udivsi3+0x8e>
    1172:	024b      	lsls	r3, r1, #9
    1174:	1ac0      	subs	r0, r0, r3
    1176:	4152      	adcs	r2, r2
    1178:	0a03      	lsrs	r3, r0, #8
    117a:	428b      	cmp	r3, r1
    117c:	d301      	bcc.n	1182 <__udivsi3+0x9a>
    117e:	020b      	lsls	r3, r1, #8
    1180:	1ac0      	subs	r0, r0, r3
    1182:	4152      	adcs	r2, r2
    1184:	d2cd      	bcs.n	1122 <__udivsi3+0x3a>
    1186:	09c3      	lsrs	r3, r0, #7
    1188:	428b      	cmp	r3, r1
    118a:	d301      	bcc.n	1190 <__udivsi3+0xa8>
    118c:	01cb      	lsls	r3, r1, #7
    118e:	1ac0      	subs	r0, r0, r3
    1190:	4152      	adcs	r2, r2
    1192:	0983      	lsrs	r3, r0, #6
    1194:	428b      	cmp	r3, r1
    1196:	d301      	bcc.n	119c <__udivsi3+0xb4>
    1198:	018b      	lsls	r3, r1, #6
    119a:	1ac0      	subs	r0, r0, r3
    119c:	4152      	adcs	r2, r2
    119e:	0943      	lsrs	r3, r0, #5
    11a0:	428b      	cmp	r3, r1
    11a2:	d301      	bcc.n	11a8 <__udivsi3+0xc0>
    11a4:	014b      	lsls	r3, r1, #5
    11a6:	1ac0      	subs	r0, r0, r3
    11a8:	4152      	adcs	r2, r2
    11aa:	0903      	lsrs	r3, r0, #4
    11ac:	428b      	cmp	r3, r1
    11ae:	d301      	bcc.n	11b4 <__udivsi3+0xcc>
    11b0:	010b      	lsls	r3, r1, #4
    11b2:	1ac0      	subs	r0, r0, r3
    11b4:	4152      	adcs	r2, r2
    11b6:	08c3      	lsrs	r3, r0, #3
    11b8:	428b      	cmp	r3, r1
    11ba:	d301      	bcc.n	11c0 <__udivsi3+0xd8>
    11bc:	00cb      	lsls	r3, r1, #3
    11be:	1ac0      	subs	r0, r0, r3
    11c0:	4152      	adcs	r2, r2
    11c2:	0883      	lsrs	r3, r0, #2
    11c4:	428b      	cmp	r3, r1
    11c6:	d301      	bcc.n	11cc <__udivsi3+0xe4>
    11c8:	008b      	lsls	r3, r1, #2
    11ca:	1ac0      	subs	r0, r0, r3
    11cc:	4152      	adcs	r2, r2
    11ce:	0843      	lsrs	r3, r0, #1
    11d0:	428b      	cmp	r3, r1
    11d2:	d301      	bcc.n	11d8 <__udivsi3+0xf0>
    11d4:	004b      	lsls	r3, r1, #1
    11d6:	1ac0      	subs	r0, r0, r3
    11d8:	4152      	adcs	r2, r2
    11da:	1a41      	subs	r1, r0, r1
    11dc:	d200      	bcs.n	11e0 <__udivsi3+0xf8>
    11de:	4601      	mov	r1, r0
    11e0:	4152      	adcs	r2, r2
    11e2:	4610      	mov	r0, r2
    11e4:	4770      	bx	lr
    11e6:	e7ff      	b.n	11e8 <__udivsi3+0x100>
    11e8:	b501      	push	{r0, lr}
    11ea:	2000      	movs	r0, #0
    11ec:	f000 f806 	bl	11fc <__aeabi_idiv0>
    11f0:	bd02      	pop	{r1, pc}
    11f2:	46c0      	nop			; (mov r8, r8)

000011f4 <__aeabi_uidivmod>:
    11f4:	2900      	cmp	r1, #0
    11f6:	d0f7      	beq.n	11e8 <__udivsi3+0x100>
    11f8:	e776      	b.n	10e8 <__udivsi3>
    11fa:	4770      	bx	lr

000011fc <__aeabi_idiv0>:
    11fc:	4770      	bx	lr
    11fe:	46c0      	nop			; (mov r8, r8)

00001200 <__libc_init_array>:
    1200:	b570      	push	{r4, r5, r6, lr}
    1202:	2600      	movs	r6, #0
    1204:	4d0c      	ldr	r5, [pc, #48]	; (1238 <__libc_init_array+0x38>)
    1206:	4c0d      	ldr	r4, [pc, #52]	; (123c <__libc_init_array+0x3c>)
    1208:	1b64      	subs	r4, r4, r5
    120a:	10a4      	asrs	r4, r4, #2
    120c:	42a6      	cmp	r6, r4
    120e:	d109      	bne.n	1224 <__libc_init_array+0x24>
    1210:	2600      	movs	r6, #0
    1212:	f000 f82d 	bl	1270 <_init>
    1216:	4d0a      	ldr	r5, [pc, #40]	; (1240 <__libc_init_array+0x40>)
    1218:	4c0a      	ldr	r4, [pc, #40]	; (1244 <__libc_init_array+0x44>)
    121a:	1b64      	subs	r4, r4, r5
    121c:	10a4      	asrs	r4, r4, #2
    121e:	42a6      	cmp	r6, r4
    1220:	d105      	bne.n	122e <__libc_init_array+0x2e>
    1222:	bd70      	pop	{r4, r5, r6, pc}
    1224:	00b3      	lsls	r3, r6, #2
    1226:	58eb      	ldr	r3, [r5, r3]
    1228:	4798      	blx	r3
    122a:	3601      	adds	r6, #1
    122c:	e7ee      	b.n	120c <__libc_init_array+0xc>
    122e:	00b3      	lsls	r3, r6, #2
    1230:	58eb      	ldr	r3, [r5, r3]
    1232:	4798      	blx	r3
    1234:	3601      	adds	r6, #1
    1236:	e7f2      	b.n	121e <__libc_init_array+0x1e>
    1238:	0000127c 	.word	0x0000127c
    123c:	0000127c 	.word	0x0000127c
    1240:	0000127c 	.word	0x0000127c
    1244:	00001280 	.word	0x00001280

00001248 <memset>:
    1248:	0003      	movs	r3, r0
    124a:	1882      	adds	r2, r0, r2
    124c:	4293      	cmp	r3, r2
    124e:	d100      	bne.n	1252 <memset+0xa>
    1250:	4770      	bx	lr
    1252:	7019      	strb	r1, [r3, #0]
    1254:	3301      	adds	r3, #1
    1256:	e7f9      	b.n	124c <memset+0x4>
    1258:	42000000 	.word	0x42000000
    125c:	42000400 	.word	0x42000400
    1260:	42000800 	.word	0x42000800
    1264:	42000c00 	.word	0x42000c00
    1268:	42001000 	.word	0x42001000
    126c:	43000400 	.word	0x43000400

00001270 <_init>:
    1270:	b5f8      	push	{r3, r4, r5, r6, r7, lr}
    1272:	46c0      	nop			; (mov r8, r8)
    1274:	bcf8      	pop	{r3, r4, r5, r6, r7}
    1276:	bc08      	pop	{r3}
    1278:	469e      	mov	lr, r3
    127a:	4770      	bx	lr

0000127c <__init_array_start>:
    127c:	000000dd 	.word	0x000000dd

00001280 <_fini>:
    1280:	b5f8      	push	{r3, r4, r5, r6, r7, lr}
    1282:	46c0      	nop			; (mov r8, r8)
    1284:	bcf8      	pop	{r3, r4, r5, r6, r7}
    1286:	bc08      	pop	{r3}
    1288:	469e      	mov	lr, r3
    128a:	4770      	bx	lr

0000128c <__fini_array_start>:
    128c:	000000b5 	.word	0x000000b5
